Archive member included because of file (symbol)

./../../../../BitCloud/lib/libHAL_deRFarm7_At91sam7x512_48Mhz_Gcc.a(atomic.o)
                              All_deRFarm7_At91sam7x512_Rf231_Gcc/Obj/WSNDemoApp.o (halStartAtomic)
./../../../../BitCloud/lib/libHAL_deRFarm7_At91sam7x512_48Mhz_Gcc.a(appTimer.o)
                              All_deRFarm7_At91sam7x512_Rf231_Gcc/Obj/WSNEndDevice.o (HAL_StartAppTimer)
./../../../../BitCloud/lib/libHAL_deRFarm7_At91sam7x512_48Mhz_Gcc.a(usart.o)
                              All_deRFarm7_At91sam7x512_Rf231_Gcc/Obj/WSNUARTManager.o (HAL_ReadUsart)
./../../../../BitCloud/lib/libHAL_deRFarm7_At91sam7x512_48Mhz_Gcc.a(i2cPacket.o)
                              All_deRFarm7_At91sam7x512_Rf231_Gcc/Obj/i2ceeprom.o (HAL_OpenI2cPacket)
./../../../../BitCloud/lib/libHAL_deRFarm7_At91sam7x512_48Mhz_Gcc.a(timer.o)
                              ./../../../../BitCloud/lib/libHAL_deRFarm7_At91sam7x512_48Mhz_Gcc.a(appTimer.o) (halAddTimer)
./../../../../BitCloud/lib/libHAL_deRFarm7_At91sam7x512_48Mhz_Gcc.a(halAppClock.o)
                              ./../../../../BitCloud/lib/libHAL_deRFarm7_At91sam7x512_48Mhz_Gcc.a(appTimer.o) (halGetTimeOfAppTimer)
./../../../../BitCloud/lib/libHAL_deRFarm7_At91sam7x512_48Mhz_Gcc.a(halUsart.o)
                              ./../../../../BitCloud/lib/libHAL_deRFarm7_At91sam7x512_48Mhz_Gcc.a(usart.o) (halSetUsartConfig)
./../../../../BitCloud/lib/libHAL_deRFarm7_At91sam7x512_48Mhz_Gcc.a(halTwi.o)
                              ./../../../../BitCloud/lib/libHAL_deRFarm7_At91sam7x512_48Mhz_Gcc.a(i2cPacket.o) (halInitI2c)
./../../../../BitCloud/lib/libHAL_deRFarm7_At91sam7x512_48Mhz_Gcc.a(halMacIsr.o)
                              ./../../../../BitCloud/lib/libHAL_deRFarm7_At91sam7x512_48Mhz_Gcc.a(halAppClock.o) (halMacTimerHandler)
./../../../../BitCloud/lib/libHAL_deRFarm7_At91sam7x512_48Mhz_Gcc.a(halTaskManager.o)
                              ./../../../../BitCloud/lib/libHAL_deRFarm7_At91sam7x512_48Mhz_Gcc.a(usart.o) (halTaskFlags)
./../../../../BitCloud/lib/libHAL_deRFarm7_At91sam7x512_48Mhz_Gcc.a(adc.o)
                              ./../../../../BitCloud/lib/libHAL_deRFarm7_At91sam7x512_48Mhz_Gcc.a(halTaskManager.o) (halSigAdcHandler)
./../../../../BitCloud/lib/libHAL_deRFarm7_At91sam7x512_48Mhz_Gcc.a(halAdc.o)
                              ./../../../../BitCloud/lib/libHAL_deRFarm7_At91sam7x512_48Mhz_Gcc.a(adc.o) (halOpenAdc)
./../../../../BitCloud/lib/libHAL_deRFarm7_At91sam7x512_48Mhz_Gcc.a(halSpi.o)
                              ./../../../../BitCloud/lib/libHAL_deRFarm7_At91sam7x512_48Mhz_Gcc.a(halTaskManager.o) (halRfTxCompleteHandler)
./../../../../BitCloud/lib/libHAL_deRFarm7_At91sam7x512_48Mhz_Gcc.a(dbgPort.o)
                              ./../../../../BitCloud/lib/libHAL_deRFarm7_At91sam7x512_48Mhz_Gcc.a(halSpi.o) (configure_dbgu)
./../../../../BitCloud/lib/libHAL_deRFarm7_At91sam7x512_48Mhz_Gcc.a(halRfCtrl.o)
                              ./../../../../BitCloud/lib/libHAL_deRFarm7_At91sam7x512_48Mhz_Gcc.a(halMacIsr.o) (HAL_InitRfIrq)
./../../../../BitCloud/lib/libBc_All_At91sam7x512_Rf231_Gcc.a(aps.o)
                              All_deRFarm7_At91sam7x512_Rf231_Gcc/Obj/WSNMessageSender.o (APS_DataReq)
./../../../../BitCloud/lib/libBc_All_At91sam7x512_Rf231_Gcc.a(macenvPib.o)
                              ./../../../../BitCloud/lib/libBc_All_At91sam7x512_Rf231_Gcc.a(aps.o) (MAC_GetExtAddr)
./../../../../BitCloud/lib/libBc_All_At91sam7x512_Rf231_Gcc.a(nwk.o)
                              ./../../../../BitCloud/lib/libBc_All_At91sam7x512_Rf231_Gcc.a(aps.o) (NWK_GetShortAddr)
./../../../../BitCloud/lib/libBc_All_At91sam7x512_Rf231_Gcc.a(phyRfIrqDispatcher.o)
                              ./../../../../BitCloud/lib/libHAL_deRFarm7_At91sam7x512_48Mhz_Gcc.a(halMacIsr.o) (phyDispatcheRfInterrupt)
./../../../../BitCloud/lib/libBc_All_At91sam7x512_Rf231_Gcc.a(phyRtimerIrqDispatcher.o)
                              ./../../../../BitCloud/lib/libHAL_deRFarm7_At91sam7x512_48Mhz_Gcc.a(halMacIsr.o) (phyDispatcheRTimerEvent)
./../../../../BitCloud/lib/libBc_All_At91sam7x512_Rf231_Gcc.a(queue.o)
                              All_deRFarm7_At91sam7x512_Rf231_Gcc/Obj/WSNMessageSender.o (deleteHeadQueueElem)
./../../../../BitCloud/lib/libBc_All_At91sam7x512_Rf231_Gcc.a(sysDuplicateTable.o)
                              ./../../../../BitCloud/lib/libBc_All_At91sam7x512_Rf231_Gcc.a(aps.o) (SYS_DuplicateTableReset)
./../../../../BitCloud/lib/libBc_All_At91sam7x512_Rf231_Gcc.a(sysEvents.o)
                              ./../../../../BitCloud/lib/libBc_All_At91sam7x512_Rf231_Gcc.a(aps.o) (SYS_PostEvent)
./../../../../BitCloud/lib/libBc_All_At91sam7x512_Rf231_Gcc.a(sysTimer.o)
                              ./../../../../BitCloud/lib/libBc_All_At91sam7x512_Rf231_Gcc.a(aps.o) (SYS_StartTimer)
./../../../../BitCloud/lib/libBc_All_At91sam7x512_Rf231_Gcc.a(taskManager.o)
                              All_deRFarm7_At91sam7x512_Rf231_Gcc/Obj/WSNDemoApp.o (SYS_RunTask)
./../../../../BitCloud/lib/libBc_All_At91sam7x512_Rf231_Gcc.a(zdo.o)
                              ./../../../../BitCloud/lib/libBc_All_At91sam7x512_Rf231_Gcc.a(nwk.o) (NWK_JoinInd)
./../../../../BitCloud/lib/libBc_All_At91sam7x512_Rf231_Gcc.a(bcSysSleep.o)
                              ./../../../../BitCloud/lib/libBc_All_At91sam7x512_Rf231_Gcc.a(zdo.o) (SYS_Sleep)
./../../../../BitCloud/lib/libBc_All_At91sam7x512_Rf231_Gcc.a(macMem.o)
                              ./../../../../BitCloud/lib/libBc_All_At91sam7x512_Rf231_Gcc.a(phyRfIrqDispatcher.o) (macMem)
./../../../../BitCloud/lib/libBc_All_At91sam7x512_Rf231_Gcc.a(machwdManager.o)
                              ./../../../../BitCloud/lib/libBc_All_At91sam7x512_Rf231_Gcc.a(zdo.o) (RF_RandomReq)
./../../../../BitCloud/lib/libBc_All_At91sam7x512_Rf231_Gcc.a(machwdRegAccessHandler.o)
                              ./../../../../BitCloud/lib/libBc_All_At91sam7x512_Rf231_Gcc.a(machwdManager.o) (machwdRegAccessReqHandler)
./../../../../BitCloud/lib/libBc_All_At91sam7x512_Rf231_Gcc.a(machwdResetHandler.o)
                              ./../../../../BitCloud/lib/libBc_All_At91sam7x512_Rf231_Gcc.a(machwdManager.o) (machwdReset)
./../../../../BitCloud/lib/libBc_All_At91sam7x512_Rf231_Gcc.a(machwdRndHandler.o)
                              ./../../../../BitCloud/lib/libBc_All_At91sam7x512_Rf231_Gcc.a(machwdManager.o) (machwdRndReqHandler)
./../../../../BitCloud/lib/libBc_All_At91sam7x512_Rf231_Gcc.a(machwdRxBuffer.o)
                              ./../../../../BitCloud/lib/libBc_All_At91sam7x512_Rf231_Gcc.a(machwdResetHandler.o) (machwdResetRxBuffer)
./../../../../BitCloud/lib/libBc_All_At91sam7x512_Rf231_Gcc.a(machwdRxFrameHandler.o)
                              ./../../../../BitCloud/lib/libBc_All_At91sam7x512_Rf231_Gcc.a(machwdManager.o) (machwdRxFrameTaskHandler)
./../../../../BitCloud/lib/libBc_All_At91sam7x512_Rf231_Gcc.a(machwdSetHandler.o)
                              ./../../../../BitCloud/lib/libBc_All_At91sam7x512_Rf231_Gcc.a(machwdManager.o) (machwdSetReqHandler)
./../../../../BitCloud/lib/libBc_All_At91sam7x512_Rf231_Gcc.a(machwdTrxCtrl.o)
                              ./../../../../BitCloud/lib/libBc_All_At91sam7x512_Rf231_Gcc.a(machwdSetHandler.o) (machwdGetPhyTrxCmd)
./../../../../BitCloud/lib/libBc_All_At91sam7x512_Rf231_Gcc.a(machwdTrxHandler.o)
                              ./../../../../BitCloud/lib/libBc_All_At91sam7x512_Rf231_Gcc.a(machwdManager.o) (machwdTrxReqHandler)
./../../../../BitCloud/lib/libBc_All_At91sam7x512_Rf231_Gcc.a(machwdTxFrameHandler.o)
                              ./../../../../BitCloud/lib/libBc_All_At91sam7x512_Rf231_Gcc.a(machwdManager.o) (machwdTxFrameReqHandler)
./../../../../BitCloud/lib/libBc_All_At91sam7x512_Rf231_Gcc.a(machwiManager.o)
                              ./../../../../BitCloud/lib/libBc_All_At91sam7x512_Rf231_Gcc.a(taskManager.o) (MAC_HWI_TaskHandler)
./../../../../BitCloud/lib/libBc_All_At91sam7x512_Rf231_Gcc.a(machwiOrphanHandler.o)
                              ./../../../../BitCloud/lib/libBc_All_At91sam7x512_Rf231_Gcc.a(machwiManager.o) (machwiOrphanRespHandler)
./../../../../BitCloud/lib/libBc_All_At91sam7x512_Rf231_Gcc.a(machwiPanServer.o)
                              ./../../../../BitCloud/lib/libBc_All_At91sam7x512_Rf231_Gcc.a(machwdManager.o) (MACHWD_DataInd)
./../../../../BitCloud/lib/libBc_All_At91sam7x512_Rf231_Gcc.a(machwiPollHandler.o)
                              ./../../../../BitCloud/lib/libBc_All_At91sam7x512_Rf231_Gcc.a(machwiPanServer.o) (machwiPollInd)
./../../../../BitCloud/lib/libBc_All_At91sam7x512_Rf231_Gcc.a(machwiPurgeHandler.o)
                              ./../../../../BitCloud/lib/libBc_All_At91sam7x512_Rf231_Gcc.a(machwiManager.o) (machwiPurgeReqHandler)
./../../../../BitCloud/lib/libBc_All_At91sam7x512_Rf231_Gcc.a(machwiResetHandler.o)
                              ./../../../../BitCloud/lib/libBc_All_At91sam7x512_Rf231_Gcc.a(machwiManager.o) (machwiResetReqHandler)
./../../../../BitCloud/lib/libBc_All_At91sam7x512_Rf231_Gcc.a(machwiRxEnableHandler.o)
                              ./../../../../BitCloud/lib/libBc_All_At91sam7x512_Rf231_Gcc.a(machwiManager.o) (machwiRxEnableReqHandler)
./../../../../BitCloud/lib/libBc_All_At91sam7x512_Rf231_Gcc.a(machwiScanHandler.o)
                              ./../../../../BitCloud/lib/libBc_All_At91sam7x512_Rf231_Gcc.a(machwiManager.o) (machwiScanReqHandler)
./../../../../BitCloud/lib/libBc_All_At91sam7x512_Rf231_Gcc.a(machwiSetGetHandler.o)
                              ./../../../../BitCloud/lib/libBc_All_At91sam7x512_Rf231_Gcc.a(machwiManager.o) (machwiGetReqHandler)
./../../../../BitCloud/lib/libBc_All_At91sam7x512_Rf231_Gcc.a(machwiStartHandler.o)
                              ./../../../../BitCloud/lib/libBc_All_At91sam7x512_Rf231_Gcc.a(machwiManager.o) (machwiStartReqHandler)
./../../../../BitCloud/lib/libBc_All_At91sam7x512_Rf231_Gcc.a(machwiSwitchRxCtrl.o)
                              ./../../../../BitCloud/lib/libBc_All_At91sam7x512_Rf231_Gcc.a(machwiPollHandler.o) (machwiSwitchRxAccordToRxOnWhenIdle)
./../../../../BitCloud/lib/libBc_All_At91sam7x512_Rf231_Gcc.a(machwiTransactionHandler.o)
                              ./../../../../BitCloud/lib/libBc_All_At91sam7x512_Rf231_Gcc.a(machwiResetHandler.o) (machwiResetTransactionHandler)
./../../../../BitCloud/lib/libBc_All_At91sam7x512_Rf231_Gcc.a(machwiTransactionQueue.o)
                              ./../../../../BitCloud/lib/libBc_All_At91sam7x512_Rf231_Gcc.a(machwiManager.o) (machwiGetActivatedTransactionFromQueue)
./../../../../BitCloud/lib/libBc_All_At91sam7x512_Rf231_Gcc.a(phyInit.o)
                              ./../../../../BitCloud/lib/libBc_All_At91sam7x512_Rf231_Gcc.a(taskManager.o) (RF_Init)
./../../../../BitCloud/lib/libBc_All_At91sam7x512_Rf231_Gcc.a(phyRegAccess.o)
                              ./../../../../BitCloud/lib/libBc_All_At91sam7x512_Rf231_Gcc.a(machwdRegAccessHandler.o) (PHY_RegWriteReq)
./../../../../BitCloud/lib/libBc_All_At91sam7x512_Rf231_Gcc.a(phyReset.o)
                              ./../../../../BitCloud/lib/libBc_All_At91sam7x512_Rf231_Gcc.a(machwdResetHandler.o) (PHY_Reset)
./../../../../BitCloud/lib/libBc_All_At91sam7x512_Rf231_Gcc.a(phyRfSpiProto.o)
                              ./../../../../BitCloud/lib/libBc_All_At91sam7x512_Rf231_Gcc.a(phyInit.o) (phyWriteRegister)
./../../../../BitCloud/lib/libBc_All_At91sam7x512_Rf231_Gcc.a(phyRnd.o)
                              ./../../../../BitCloud/lib/libBc_All_At91sam7x512_Rf231_Gcc.a(machwdRndHandler.o) (PHY_RndReq)
./../../../../BitCloud/lib/libBc_All_At91sam7x512_Rf231_Gcc.a(phyRxFrame.o)
                              ./../../../../BitCloud/lib/libBc_All_At91sam7x512_Rf231_Gcc.a(machwdRxFrameHandler.o) (PHY_DownloadFrame)
./../../../../BitCloud/lib/libBc_All_At91sam7x512_Rf231_Gcc.a(phySet.o)
                              ./../../../../BitCloud/lib/libBc_All_At91sam7x512_Rf231_Gcc.a(machwdResetHandler.o) (PHY_SetReq)
./../../../../BitCloud/lib/libBc_All_At91sam7x512_Rf231_Gcc.a(phySetTrxState.o)
                              ./../../../../BitCloud/lib/libBc_All_At91sam7x512_Rf231_Gcc.a(machwdSetHandler.o) (PHY_SetTrxStateReq)
./../../../../BitCloud/lib/libBc_All_At91sam7x512_Rf231_Gcc.a(phyStateMachine.o)
                              ./../../../../BitCloud/lib/libBc_All_At91sam7x512_Rf231_Gcc.a(phyRnd.o) (PHY_CheckStateTransition)
./../../../../BitCloud/lib/libBc_All_At91sam7x512_Rf231_Gcc.a(phyTxFrame.o)
                              ./../../../../BitCloud/lib/libBc_All_At91sam7x512_Rf231_Gcc.a(machwdTxFrameHandler.o) (PHY_DataReq)
./../../../../BitCloud/lib/libBc_All_At91sam7x512_Rf231_Gcc.a(machwdCalibHandler.o)
                              ./../../../../BitCloud/lib/libBc_All_At91sam7x512_Rf231_Gcc.a(machwdManager.o) (machwdCalibReqHandler)
./../../../../BitCloud/lib/libBc_All_At91sam7x512_Rf231_Gcc.a(machwdEdHandler.o)
                              ./../../../../BitCloud/lib/libBc_All_At91sam7x512_Rf231_Gcc.a(machwdManager.o) (machwdEdReqHandler)
./../../../../BitCloud/lib/libBc_All_At91sam7x512_Rf231_Gcc.a(machwdFrameRoutine.o)
                              ./../../../../BitCloud/lib/libBc_All_At91sam7x512_Rf231_Gcc.a(machwdRxFrameHandler.o) (machwdParseFrame)
./../../../../BitCloud/lib/libBc_All_At91sam7x512_Rf231_Gcc.a(machwdHandlerCtrl.o)
                              ./../../../../BitCloud/lib/libBc_All_At91sam7x512_Rf231_Gcc.a(machwdManager.o) (machwdGetHandlerId)
./../../../../BitCloud/lib/libBc_All_At91sam7x512_Rf231_Gcc.a(machwiAssociateHandler.o)
                              ./../../../../BitCloud/lib/libBc_All_At91sam7x512_Rf231_Gcc.a(machwiResetHandler.o) (machwiResetAssociateHandler)
./../../../../BitCloud/lib/libBc_All_At91sam7x512_Rf231_Gcc.a(machwiBeaconHandler.o)
                              ./../../../../BitCloud/lib/libBc_All_At91sam7x512_Rf231_Gcc.a(machwiManager.o) (machwiSendBeacon)
./../../../../BitCloud/lib/libBc_All_At91sam7x512_Rf231_Gcc.a(machwiDataHandler.o)
                              ./../../../../BitCloud/lib/libBc_All_At91sam7x512_Rf231_Gcc.a(machwiOrphanHandler.o) (machwiConvertmachwdDataConfirmTypes)
./../../../../BitCloud/lib/libBc_All_At91sam7x512_Rf231_Gcc.a(phyCalib.o)
                              ./../../../../BitCloud/lib/libBc_All_At91sam7x512_Rf231_Gcc.a(machwdCalibHandler.o) (PHY_CalibReq)
./../../../../BitCloud/lib/libBc_All_At91sam7x512_Rf231_Gcc.a(phyEd.o)
                              ./../../../../BitCloud/lib/libBc_All_At91sam7x512_Rf231_Gcc.a(machwdEdHandler.o) (PHY_EdReq)
./../../../../BitCloud/lib/libHAL_deRFarm7_At91sam7x512_48Mhz_Gcc.a(halInit.o)
                              ./../../../../BitCloud/lib/libBc_All_At91sam7x512_Rf231_Gcc.a(taskManager.o) (HAL_Init)
./../../../../BitCloud/lib/libHAL_deRFarm7_At91sam7x512_48Mhz_Gcc.a(halLowLevelInit.o)
                              ./../../../../BitCloud/lib/FirmwareBoot_Gcc.o (halLowLevelInit)
./../../../../BitCloud/lib/libHAL_deRFarm7_At91sam7x512_48Mhz_Gcc.a(halUid.o)
                              ./../../../../BitCloud/lib/libHAL_deRFarm7_At91sam7x512_48Mhz_Gcc.a(halInit.o) (halReadUid)
./../../../../BitCloud/lib/libHAL_deRFarm7_At91sam7x512_48Mhz_Gcc.a(sleep.o)
                              ./../../../../BitCloud/lib/libBc_All_At91sam7x512_Rf231_Gcc.a(bcSysSleep.o) (HAL_StartSystemSleep)
/home/bazi/intelligent-house/CodeSourcery/bin/../lib/gcc/arm-none-eabi/4.7.3/thumb/libgcc.a(_thumb1_case_uqi.o)
                              All_deRFarm7_At91sam7x512_Rf231_Gcc/Obj/WSNEndDevice.o (__gnu_thumb1_case_uqi)
/home/bazi/intelligent-house/CodeSourcery/bin/../lib/gcc/arm-none-eabi/4.7.3/thumb/libgcc.a(_thumb1_case_shi.o)
                              ./../../../../BitCloud/lib/libBc_All_At91sam7x512_Rf231_Gcc.a(aps.o) (__gnu_thumb1_case_shi)
/home/bazi/intelligent-house/CodeSourcery/bin/../lib/gcc/arm-none-eabi/4.7.3/thumb/libgcc.a(_thumb1_case_uhi.o)
                              ./../../../../BitCloud/lib/libBc_All_At91sam7x512_Rf231_Gcc.a(zdo.o) (__gnu_thumb1_case_uhi)
/home/bazi/intelligent-house/CodeSourcery/bin/../lib/gcc/arm-none-eabi/4.7.3/thumb/libgcc.a(_udivsi3.o)
                              All_deRFarm7_At91sam7x512_Rf231_Gcc/Obj/usbEnumeration.o (__aeabi_uidiv)
/home/bazi/intelligent-house/CodeSourcery/bin/../lib/gcc/arm-none-eabi/4.7.3/thumb/libgcc.a(_dvmd_tls.o)
                              /home/bazi/intelligent-house/CodeSourcery/bin/../lib/gcc/arm-none-eabi/4.7.3/thumb/libgcc.a(_udivsi3.o) (__aeabi_idiv0)
/home/bazi/intelligent-house/CodeSourcery/bin/../lib/gcc/arm-none-eabi/4.7.3/../../../../arm-none-eabi/lib/thumb/libc.a(lib_a-memcmp.o)
                              ./../../../../BitCloud/lib/libBc_All_At91sam7x512_Rf231_Gcc.a(aps.o) (memcmp)
/home/bazi/intelligent-house/CodeSourcery/bin/../lib/gcc/arm-none-eabi/4.7.3/../../../../arm-none-eabi/lib/thumb/libc.a(lib_a-memcpy.o)
                              All_deRFarm7_At91sam7x512_Rf231_Gcc/Obj/WSNEndDevice.o (memcpy)
/home/bazi/intelligent-house/CodeSourcery/bin/../lib/gcc/arm-none-eabi/4.7.3/../../../../arm-none-eabi/lib/thumb/libc.a(lib_a-memmove.o)
                              ./../../../../BitCloud/lib/libBc_All_At91sam7x512_Rf231_Gcc.a(zdo.o) (memmove)
/home/bazi/intelligent-house/CodeSourcery/bin/../lib/gcc/arm-none-eabi/4.7.3/../../../../arm-none-eabi/lib/thumb/libc.a(lib_a-memset.o)
                              All_deRFarm7_At91sam7x512_Rf231_Gcc/Obj/WSNEndDevice.o (memset)
/home/bazi/intelligent-house/CodeSourcery/bin/../lib/gcc/arm-none-eabi/4.7.3/../../../../arm-none-eabi/lib/thumb/libc.a(lib_a-rand.o)
                              ./../../../../BitCloud/lib/libBc_All_At91sam7x512_Rf231_Gcc.a(zdo.o) (srand)
/home/bazi/intelligent-house/CodeSourcery/bin/../lib/gcc/arm-none-eabi/4.7.3/../../../../arm-none-eabi/lib/thumb/libc.a(lib_a-impure.o)
                              /home/bazi/intelligent-house/CodeSourcery/bin/../lib/gcc/arm-none-eabi/4.7.3/../../../../arm-none-eabi/lib/thumb/libc.a(lib_a-rand.o) (_impure_ptr)
/home/bazi/intelligent-house/CodeSourcery/bin/../lib/gcc/arm-none-eabi/4.7.3/thumb/libgcc.a(_muldi3.o)
                              /home/bazi/intelligent-house/CodeSourcery/bin/../lib/gcc/arm-none-eabi/4.7.3/../../../../arm-none-eabi/lib/thumb/libc.a(lib_a-rand.o) (__aeabi_lmul)

Allocating common symbols
Common symbol       size              file

stackBuffers        0xb50             All_deRFarm7_At91sam7x512_Rf231_Gcc/Obj/csMem.o
readBatteryDataCallback
                    0x4               All_deRFarm7_At91sam7x512_Rf231_Gcc/Obj/fakeBSP.o
csAIB               0x2               All_deRFarm7_At91sam7x512_Rf231_Gcc/Obj/csMem.o
response            0x7               All_deRFarm7_At91sam7x512_Rf231_Gcc/Obj/vcpCdcProtocol.o
macMem              0x100             ./../../../../BitCloud/lib/libBc_All_At91sam7x512_Rf231_Gcc.a(macMem.o)
nwkMem              0x2e0             ./../../../../BitCloud/lib/libBc_All_At91sam7x512_Rf231_Gcc.a(nwk.o)
csZIB               0x38              All_deRFarm7_At91sam7x512_Rf231_Gcc/Obj/csMem.o
csPIB               0x48              All_deRFarm7_At91sam7x512_Rf231_Gcc/Obj/csMem.o
bspEepromParams     0xc               All_deRFarm7_At91sam7x512_Rf231_Gcc/Obj/i2ceeprom.o
zdoMem              0x548             ./../../../../BitCloud/lib/libBc_All_At91sam7x512_Rf231_Gcc.a(zdo.o)
readTemperatureDataCallback
                    0x4               All_deRFarm7_At91sam7x512_Rf231_Gcc/Obj/fakeBSP.o
csSIB               0x50              All_deRFarm7_At91sam7x512_Rf231_Gcc/Obj/csMem.o
request             0xf               All_deRFarm7_At91sam7x512_Rf231_Gcc/Obj/vcpCdcProtocol.o
apsMem              0x158             ./../../../../BitCloud/lib/libBc_All_At91sam7x512_Rf231_Gcc.a(aps.o)
txBuffer            0x21              ./../../../../BitCloud/lib/libBc_All_At91sam7x512_Rf231_Gcc.a(machwdFrameRoutine.o)
__rtimer            0x6               ./../../../../BitCloud/lib/libHAL_deRFarm7_At91sam7x512_48Mhz_Gcc.a(halMacIsr.o)
vcpControl          0x2               All_deRFarm7_At91sam7x512_Rf231_Gcc/Obj/vcpVirtualUsart.o
halAvarRegState     0x40              ./../../../../BitCloud/lib/libHAL_deRFarm7_At91sam7x512_48Mhz_Gcc.a(dbgPort.o)
readLightDataCallback
                    0x4               All_deRFarm7_At91sam7x512_Rf231_Gcc/Obj/fakeBSP.o
halI2cDesc          0x4               ./../../../../BitCloud/lib/libHAL_deRFarm7_At91sam7x512_48Mhz_Gcc.a(i2cPacket.o)
csNIB               0x90              All_deRFarm7_At91sam7x512_Rf231_Gcc/Obj/csMem.o

Discarded input sections

 .text          0x00000000        0x0 All_deRFarm7_At91sam7x512_Rf231_Gcc/Obj/WSNSensorManager.o
 .data          0x00000000        0x0 All_deRFarm7_At91sam7x512_Rf231_Gcc/Obj/WSNSensorManager.o
 .text          0x00000000        0x0 All_deRFarm7_At91sam7x512_Rf231_Gcc/Obj/WSNVisualizer.o
 .data          0x00000000        0x0 All_deRFarm7_At91sam7x512_Rf231_Gcc/Obj/WSNVisualizer.o
 .bss           0x00000000        0x0 All_deRFarm7_At91sam7x512_Rf231_Gcc/Obj/WSNVisualizer.o
 .text.visualizeSerialTx
                0x00000000        0x2 All_deRFarm7_At91sam7x512_Rf231_Gcc/Obj/WSNVisualizer.o
 .text          0x00000000        0x0 All_deRFarm7_At91sam7x512_Rf231_Gcc/Obj/WSNEndDevice.o
 .text          0x00000000        0x0 All_deRFarm7_At91sam7x512_Rf231_Gcc/Obj/WSNCoord.o
 .data          0x00000000       0x10 All_deRFarm7_At91sam7x512_Rf231_Gcc/Obj/WSNCoord.o
 .bss           0x00000000       0x18 All_deRFarm7_At91sam7x512_Rf231_Gcc/Obj/WSNCoord.o
 .text.appCoordinatorInitialization
                0x00000000        0xc All_deRFarm7_At91sam7x512_Rf231_Gcc/Obj/WSNCoord.o
 .text.appCoordinatorTaskReset
                0x00000000       0x18 All_deRFarm7_At91sam7x512_Rf231_Gcc/Obj/WSNCoord.o
 .text.deviceTimerFired
                0x00000000       0x18 All_deRFarm7_At91sam7x512_Rf231_Gcc/Obj/WSNCoord.o
 .text.appSensorsGot
                0x00000000       0x1c All_deRFarm7_At91sam7x512_Rf231_Gcc/Obj/WSNCoord.o
 .text.appCoordinatorNwkInfoCmdHandler
                0x00000000       0x18 All_deRFarm7_At91sam7x512_Rf231_Gcc/Obj/WSNCoord.o
 .text.appCoordinatorIdentifyCmdHandler
                0x00000000      0x154 All_deRFarm7_At91sam7x512_Rf231_Gcc/Obj/WSNCoord.o
 .text.appCoordinatorTaskHandler
                0x00000000       0x8c All_deRFarm7_At91sam7x512_Rf231_Gcc/Obj/WSNCoord.o
 .text.appCoordinatorConfirmHandler
                0x00000000       0x5c All_deRFarm7_At91sam7x512_Rf231_Gcc/Obj/WSNCoord.o
 .text.appCoordinatorGetInterface
                0x00000000       0x2c All_deRFarm7_At91sam7x512_Rf231_Gcc/Obj/WSNCoord.o
 .debug_info    0x00000000     0x11ee All_deRFarm7_At91sam7x512_Rf231_Gcc/Obj/WSNCoord.o
 .debug_abbrev  0x00000000      0x331 All_deRFarm7_At91sam7x512_Rf231_Gcc/Obj/WSNCoord.o
 .debug_loc     0x00000000      0x20d All_deRFarm7_At91sam7x512_Rf231_Gcc/Obj/WSNCoord.o
 .debug_aranges
                0x00000000       0x60 All_deRFarm7_At91sam7x512_Rf231_Gcc/Obj/WSNCoord.o
 .debug_ranges  0x00000000       0x50 All_deRFarm7_At91sam7x512_Rf231_Gcc/Obj/WSNCoord.o
 .debug_line    0x00000000      0x4c5 All_deRFarm7_At91sam7x512_Rf231_Gcc/Obj/WSNCoord.o
 .debug_str     0x00000000     0x15bc All_deRFarm7_At91sam7x512_Rf231_Gcc/Obj/WSNCoord.o
 .comment       0x00000000       0x31 All_deRFarm7_At91sam7x512_Rf231_Gcc/Obj/WSNCoord.o
 .ARM.attributes
                0x00000000       0x30 All_deRFarm7_At91sam7x512_Rf231_Gcc/Obj/WSNCoord.o
 .debug_frame   0x00000000       0xe4 All_deRFarm7_At91sam7x512_Rf231_Gcc/Obj/WSNCoord.o
 .text          0x00000000        0x0 All_deRFarm7_At91sam7x512_Rf231_Gcc/Obj/WSNMessageSender.o
 .data          0x00000000        0x0 All_deRFarm7_At91sam7x512_Rf231_Gcc/Obj/WSNMessageSender.o
 .text          0x00000000        0x0 All_deRFarm7_At91sam7x512_Rf231_Gcc/Obj/WSNCommandHandler.o
 .data          0x00000000        0x0 All_deRFarm7_At91sam7x512_Rf231_Gcc/Obj/WSNCommandHandler.o
 .text          0x00000000        0x0 All_deRFarm7_At91sam7x512_Rf231_Gcc/Obj/WSNRouter.o
 .data          0x00000000       0x10 All_deRFarm7_At91sam7x512_Rf231_Gcc/Obj/WSNRouter.o
 .bss           0x00000000       0x18 All_deRFarm7_At91sam7x512_Rf231_Gcc/Obj/WSNRouter.o
 .text.appRouterInitialization
                0x00000000        0xc All_deRFarm7_At91sam7x512_Rf231_Gcc/Obj/WSNRouter.o
 .text.appRouterTaskReset
                0x00000000       0x18 All_deRFarm7_At91sam7x512_Rf231_Gcc/Obj/WSNRouter.o
 .text.deviceTimerFired
                0x00000000       0x18 All_deRFarm7_At91sam7x512_Rf231_Gcc/Obj/WSNRouter.o
 .text.appSensorsGot
                0x00000000       0x1c All_deRFarm7_At91sam7x512_Rf231_Gcc/Obj/WSNRouter.o
 .text.appRouterIdentifyCmdHandler
                0x00000000       0x20 All_deRFarm7_At91sam7x512_Rf231_Gcc/Obj/WSNRouter.o
 .text.appRouterNwkInfoCmdHandler
                0x00000000       0x52 All_deRFarm7_At91sam7x512_Rf231_Gcc/Obj/WSNRouter.o
 .text.appRouterTaskHandler
                0x00000000       0x9c All_deRFarm7_At91sam7x512_Rf231_Gcc/Obj/WSNRouter.o
 .text.appRouterGetInterface
                0x00000000       0x2c All_deRFarm7_At91sam7x512_Rf231_Gcc/Obj/WSNRouter.o
 .debug_info    0x00000000     0x10dc All_deRFarm7_At91sam7x512_Rf231_Gcc/Obj/WSNRouter.o
 .debug_abbrev  0x00000000      0x2d4 All_deRFarm7_At91sam7x512_Rf231_Gcc/Obj/WSNRouter.o
 .debug_loc     0x00000000      0x12b All_deRFarm7_At91sam7x512_Rf231_Gcc/Obj/WSNRouter.o
 .debug_aranges
                0x00000000       0x58 All_deRFarm7_At91sam7x512_Rf231_Gcc/Obj/WSNRouter.o
 .debug_ranges  0x00000000       0x48 All_deRFarm7_At91sam7x512_Rf231_Gcc/Obj/WSNRouter.o
 .debug_line    0x00000000      0x482 All_deRFarm7_At91sam7x512_Rf231_Gcc/Obj/WSNRouter.o
 .debug_str     0x00000000     0x1528 All_deRFarm7_At91sam7x512_Rf231_Gcc/Obj/WSNRouter.o
 .comment       0x00000000       0x31 All_deRFarm7_At91sam7x512_Rf231_Gcc/Obj/WSNRouter.o
 .ARM.attributes
                0x00000000       0x30 All_deRFarm7_At91sam7x512_Rf231_Gcc/Obj/WSNRouter.o
 .debug_frame   0x00000000       0xcc All_deRFarm7_At91sam7x512_Rf231_Gcc/Obj/WSNRouter.o
 .text          0x00000000        0x0 All_deRFarm7_At91sam7x512_Rf231_Gcc/Obj/WSNDemoApp.o
 .text.appPcCmdReceived
                0x00000000       0x10 All_deRFarm7_At91sam7x512_Rf231_Gcc/Obj/WSNDemoApp.o
 .text          0x00000000        0x0 All_deRFarm7_At91sam7x512_Rf231_Gcc/Obj/WSNUARTManager.o
 .data          0x00000000        0x0 All_deRFarm7_At91sam7x512_Rf231_Gcc/Obj/WSNUARTManager.o
 .bss           0x00000000      0x2e4 All_deRFarm7_At91sam7x512_Rf231_Gcc/Obj/WSNUARTManager.o
 .text.resetUsartRx
                0x00000000       0x2c All_deRFarm7_At91sam7x512_Rf231_Gcc/Obj/WSNUARTManager.o
 .text.linkSafetyTimerFired
                0x00000000        0xc All_deRFarm7_At91sam7x512_Rf231_Gcc/Obj/WSNUARTManager.o
 .text.readByteEvent
                0x00000000       0xec All_deRFarm7_At91sam7x512_Rf231_Gcc/Obj/WSNUARTManager.o
 .text.sendNextMessage.part.0
                0x00000000       0x3c All_deRFarm7_At91sam7x512_Rf231_Gcc/Obj/WSNUARTManager.o
 .text.writeConfirm
                0x00000000       0x3c All_deRFarm7_At91sam7x512_Rf231_Gcc/Obj/WSNUARTManager.o
 .text.appStartUsartManager
                0x00000000       0x8c All_deRFarm7_At91sam7x512_Rf231_Gcc/Obj/WSNUARTManager.o
 .text.appStopUsartManager
                0x00000000       0x14 All_deRFarm7_At91sam7x512_Rf231_Gcc/Obj/WSNUARTManager.o
 .text.appSendMessageToUsart
                0x00000000       0xa4 All_deRFarm7_At91sam7x512_Rf231_Gcc/Obj/WSNUARTManager.o
 .debug_info    0x00000000      0xe9e All_deRFarm7_At91sam7x512_Rf231_Gcc/Obj/WSNUARTManager.o
 .debug_abbrev  0x00000000      0x30e All_deRFarm7_At91sam7x512_Rf231_Gcc/Obj/WSNUARTManager.o
 .debug_loc     0x00000000      0x356 All_deRFarm7_At91sam7x512_Rf231_Gcc/Obj/WSNUARTManager.o
 .debug_aranges
                0x00000000       0x58 All_deRFarm7_At91sam7x512_Rf231_Gcc/Obj/WSNUARTManager.o
 .debug_ranges  0x00000000       0x60 All_deRFarm7_At91sam7x512_Rf231_Gcc/Obj/WSNUARTManager.o
 .debug_line    0x00000000      0x406 All_deRFarm7_At91sam7x512_Rf231_Gcc/Obj/WSNUARTManager.o
 .debug_str     0x00000000      0xbe3 All_deRFarm7_At91sam7x512_Rf231_Gcc/Obj/WSNUARTManager.o
 .comment       0x00000000       0x31 All_deRFarm7_At91sam7x512_Rf231_Gcc/Obj/WSNUARTManager.o
 .ARM.attributes
                0x00000000       0x30 All_deRFarm7_At91sam7x512_Rf231_Gcc/Obj/WSNUARTManager.o
 .debug_frame   0x00000000       0xe4 All_deRFarm7_At91sam7x512_Rf231_Gcc/Obj/WSNUARTManager.o
 .text          0x00000000        0x0 All_deRFarm7_At91sam7x512_Rf231_Gcc/Obj/pdsMem.o
 .data          0x00000000        0x0 All_deRFarm7_At91sam7x512_Rf231_Gcc/Obj/pdsMem.o
 .bss           0x00000000        0x0 All_deRFarm7_At91sam7x512_Rf231_Gcc/Obj/pdsMem.o
 .debug_info    0x00000000      0x324 All_deRFarm7_At91sam7x512_Rf231_Gcc/Obj/pdsMem.o
 .debug_abbrev  0x00000000       0xbc All_deRFarm7_At91sam7x512_Rf231_Gcc/Obj/pdsMem.o
 .debug_aranges
                0x00000000       0x18 All_deRFarm7_At91sam7x512_Rf231_Gcc/Obj/pdsMem.o
 .debug_line    0x00000000      0x1f3 All_deRFarm7_At91sam7x512_Rf231_Gcc/Obj/pdsMem.o
 .debug_str     0x00000000      0x367 All_deRFarm7_At91sam7x512_Rf231_Gcc/Obj/pdsMem.o
 .comment       0x00000000       0x31 All_deRFarm7_At91sam7x512_Rf231_Gcc/Obj/pdsMem.o
 .ARM.attributes
                0x00000000       0x30 All_deRFarm7_At91sam7x512_Rf231_Gcc/Obj/pdsMem.o
 .text          0x00000000        0x0 All_deRFarm7_At91sam7x512_Rf231_Gcc/Obj/pdsWriteData.o
 .data          0x00000000        0x0 All_deRFarm7_At91sam7x512_Rf231_Gcc/Obj/pdsWriteData.o
 .bss           0x00000000        0x0 All_deRFarm7_At91sam7x512_Rf231_Gcc/Obj/pdsWriteData.o
 .text.pdsDummyCallback
                0x00000000        0x2 All_deRFarm7_At91sam7x512_Rf231_Gcc/Obj/pdsWriteData.o
 .text.pdsWaitMemoryFree
                0x00000000       0x16 All_deRFarm7_At91sam7x512_Rf231_Gcc/Obj/pdsWriteData.o
 .text.pdsRead  0x00000000       0x34 All_deRFarm7_At91sam7x512_Rf231_Gcc/Obj/pdsWriteData.o
 .text.pdsWrite
                0x00000000       0x34 All_deRFarm7_At91sam7x512_Rf231_Gcc/Obj/pdsWriteData.o
 .debug_info    0x00000000      0x520 All_deRFarm7_At91sam7x512_Rf231_Gcc/Obj/pdsWriteData.o
 .debug_abbrev  0x00000000      0x1cd All_deRFarm7_At91sam7x512_Rf231_Gcc/Obj/pdsWriteData.o
 .debug_loc     0x00000000      0x142 All_deRFarm7_At91sam7x512_Rf231_Gcc/Obj/pdsWriteData.o
 .debug_aranges
                0x00000000       0x38 All_deRFarm7_At91sam7x512_Rf231_Gcc/Obj/pdsWriteData.o
 .debug_ranges  0x00000000       0x28 All_deRFarm7_At91sam7x512_Rf231_Gcc/Obj/pdsWriteData.o
 .debug_line    0x00000000      0x2a4 All_deRFarm7_At91sam7x512_Rf231_Gcc/Obj/pdsWriteData.o
 .debug_str     0x00000000      0x483 All_deRFarm7_At91sam7x512_Rf231_Gcc/Obj/pdsWriteData.o
 .comment       0x00000000       0x31 All_deRFarm7_At91sam7x512_Rf231_Gcc/Obj/pdsWriteData.o
 .ARM.attributes
                0x00000000       0x30 All_deRFarm7_At91sam7x512_Rf231_Gcc/Obj/pdsWriteData.o
 .debug_frame   0x00000000       0x70 All_deRFarm7_At91sam7x512_Rf231_Gcc/Obj/pdsWriteData.o
 .text          0x00000000        0x0 All_deRFarm7_At91sam7x512_Rf231_Gcc/Obj/pdsDataServer.o
 .data          0x00000000        0x0 All_deRFarm7_At91sam7x512_Rf231_Gcc/Obj/pdsDataServer.o
 .bss           0x00000000        0x0 All_deRFarm7_At91sam7x512_Rf231_Gcc/Obj/pdsDataServer.o
 .text.PDS_ReadUserData
                0x00000000       0x4c All_deRFarm7_At91sam7x512_Rf231_Gcc/Obj/pdsDataServer.o
 .text.PDS_WriteUserData
                0x00000000       0x4c All_deRFarm7_At91sam7x512_Rf231_Gcc/Obj/pdsDataServer.o
 .debug_info    0x00000000      0x7b1 All_deRFarm7_At91sam7x512_Rf231_Gcc/Obj/pdsDataServer.o
 .debug_abbrev  0x00000000      0x17e All_deRFarm7_At91sam7x512_Rf231_Gcc/Obj/pdsDataServer.o
 .debug_loc     0x00000000      0x15a All_deRFarm7_At91sam7x512_Rf231_Gcc/Obj/pdsDataServer.o
 .debug_aranges
                0x00000000       0x28 All_deRFarm7_At91sam7x512_Rf231_Gcc/Obj/pdsDataServer.o
 .debug_ranges  0x00000000       0x18 All_deRFarm7_At91sam7x512_Rf231_Gcc/Obj/pdsDataServer.o
 .debug_line    0x00000000      0x340 All_deRFarm7_At91sam7x512_Rf231_Gcc/Obj/pdsDataServer.o
 .debug_str     0x00000000      0x6a4 All_deRFarm7_At91sam7x512_Rf231_Gcc/Obj/pdsDataServer.o
 .comment       0x00000000       0x31 All_deRFarm7_At91sam7x512_Rf231_Gcc/Obj/pdsDataServer.o
 .ARM.attributes
                0x00000000       0x30 All_deRFarm7_At91sam7x512_Rf231_Gcc/Obj/pdsDataServer.o
 .debug_frame   0x00000000       0x50 All_deRFarm7_At91sam7x512_Rf231_Gcc/Obj/pdsDataServer.o
 .text          0x00000000        0x0 All_deRFarm7_At91sam7x512_Rf231_Gcc/Obj/pdsInit.o
 .data          0x00000000        0x0 All_deRFarm7_At91sam7x512_Rf231_Gcc/Obj/pdsInit.o
 .bss           0x00000000        0x0 All_deRFarm7_At91sam7x512_Rf231_Gcc/Obj/pdsInit.o
 .debug_info    0x00000000      0x324 All_deRFarm7_At91sam7x512_Rf231_Gcc/Obj/pdsInit.o
 .debug_abbrev  0x00000000       0xbc All_deRFarm7_At91sam7x512_Rf231_Gcc/Obj/pdsInit.o
 .debug_aranges
                0x00000000       0x18 All_deRFarm7_At91sam7x512_Rf231_Gcc/Obj/pdsInit.o
 .debug_line    0x00000000      0x1f3 All_deRFarm7_At91sam7x512_Rf231_Gcc/Obj/pdsInit.o
 .debug_str     0x00000000      0x368 All_deRFarm7_At91sam7x512_Rf231_Gcc/Obj/pdsInit.o
 .comment       0x00000000       0x31 All_deRFarm7_At91sam7x512_Rf231_Gcc/Obj/pdsInit.o
 .ARM.attributes
                0x00000000       0x30 All_deRFarm7_At91sam7x512_Rf231_Gcc/Obj/pdsInit.o
 .text          0x00000000        0x0 All_deRFarm7_At91sam7x512_Rf231_Gcc/Obj/pdsTimer.o
 .data          0x00000000        0x0 All_deRFarm7_At91sam7x512_Rf231_Gcc/Obj/pdsTimer.o
 .bss           0x00000000        0x0 All_deRFarm7_At91sam7x512_Rf231_Gcc/Obj/pdsTimer.o
 .debug_info    0x00000000      0x324 All_deRFarm7_At91sam7x512_Rf231_Gcc/Obj/pdsTimer.o
 .debug_abbrev  0x00000000       0xbc All_deRFarm7_At91sam7x512_Rf231_Gcc/Obj/pdsTimer.o
 .debug_aranges
                0x00000000       0x18 All_deRFarm7_At91sam7x512_Rf231_Gcc/Obj/pdsTimer.o
 .debug_line    0x00000000      0x1f3 All_deRFarm7_At91sam7x512_Rf231_Gcc/Obj/pdsTimer.o
 .debug_str     0x00000000      0x369 All_deRFarm7_At91sam7x512_Rf231_Gcc/Obj/pdsTimer.o
 .comment       0x00000000       0x31 All_deRFarm7_At91sam7x512_Rf231_Gcc/Obj/pdsTimer.o
 .ARM.attributes
                0x00000000       0x30 All_deRFarm7_At91sam7x512_Rf231_Gcc/Obj/pdsTimer.o
 .text          0x00000000        0x0 All_deRFarm7_At91sam7x512_Rf231_Gcc/Obj/pdsEvents.o
 .data          0x00000000        0x0 All_deRFarm7_At91sam7x512_Rf231_Gcc/Obj/pdsEvents.o
 .bss           0x00000000        0x0 All_deRFarm7_At91sam7x512_Rf231_Gcc/Obj/pdsEvents.o
 .debug_info    0x00000000      0x324 All_deRFarm7_At91sam7x512_Rf231_Gcc/Obj/pdsEvents.o
 .debug_abbrev  0x00000000       0xbc All_deRFarm7_At91sam7x512_Rf231_Gcc/Obj/pdsEvents.o
 .debug_aranges
                0x00000000       0x18 All_deRFarm7_At91sam7x512_Rf231_Gcc/Obj/pdsEvents.o
 .debug_line    0x00000000      0x1f3 All_deRFarm7_At91sam7x512_Rf231_Gcc/Obj/pdsEvents.o
 .debug_str     0x00000000      0x36a All_deRFarm7_At91sam7x512_Rf231_Gcc/Obj/pdsEvents.o
 .comment       0x00000000       0x31 All_deRFarm7_At91sam7x512_Rf231_Gcc/Obj/pdsEvents.o
 .ARM.attributes
                0x00000000       0x30 All_deRFarm7_At91sam7x512_Rf231_Gcc/Obj/pdsEvents.o
 .text          0x00000000        0x0 All_deRFarm7_At91sam7x512_Rf231_Gcc/Obj/pdsMemAccess.o
 .data          0x00000000        0x0 All_deRFarm7_At91sam7x512_Rf231_Gcc/Obj/pdsMemAccess.o
 .bss           0x00000000        0x0 All_deRFarm7_At91sam7x512_Rf231_Gcc/Obj/pdsMemAccess.o
 .debug_info    0x00000000      0x324 All_deRFarm7_At91sam7x512_Rf231_Gcc/Obj/pdsMemAccess.o
 .debug_abbrev  0x00000000       0xbc All_deRFarm7_At91sam7x512_Rf231_Gcc/Obj/pdsMemAccess.o
 .debug_aranges
                0x00000000       0x18 All_deRFarm7_At91sam7x512_Rf231_Gcc/Obj/pdsMemAccess.o
 .debug_line    0x00000000      0x1f3 All_deRFarm7_At91sam7x512_Rf231_Gcc/Obj/pdsMemAccess.o
 .debug_str     0x00000000      0x36d All_deRFarm7_At91sam7x512_Rf231_Gcc/Obj/pdsMemAccess.o
 .comment       0x00000000       0x31 All_deRFarm7_At91sam7x512_Rf231_Gcc/Obj/pdsMemAccess.o
 .ARM.attributes
                0x00000000       0x30 All_deRFarm7_At91sam7x512_Rf231_Gcc/Obj/pdsMemAccess.o
 .text          0x00000000        0x0 All_deRFarm7_At91sam7x512_Rf231_Gcc/Obj/pdsCrcService.o
 .data          0x00000000        0x0 All_deRFarm7_At91sam7x512_Rf231_Gcc/Obj/pdsCrcService.o
 .bss           0x00000000        0x0 All_deRFarm7_At91sam7x512_Rf231_Gcc/Obj/pdsCrcService.o
 .debug_line    0x00000000        0x0 All_deRFarm7_At91sam7x512_Rf231_Gcc/Obj/pdsCrcService.o
 .comment       0x00000000       0x31 All_deRFarm7_At91sam7x512_Rf231_Gcc/Obj/pdsCrcService.o
 .ARM.attributes
                0x00000000       0x30 All_deRFarm7_At91sam7x512_Rf231_Gcc/Obj/pdsCrcService.o
 .text          0x00000000        0x0 All_deRFarm7_At91sam7x512_Rf231_Gcc/Obj/vcpVirtualUsart.o
 .data          0x00000000        0x0 All_deRFarm7_At91sam7x512_Rf231_Gcc/Obj/vcpVirtualUsart.o
 .bss           0x00000000        0x4 All_deRFarm7_At91sam7x512_Rf231_Gcc/Obj/vcpVirtualUsart.o
 .text.vcpTmtCallback
                0x00000000       0x84 All_deRFarm7_At91sam7x512_Rf231_Gcc/Obj/vcpVirtualUsart.o
 .text.VCP_OpenUsart
                0x00000000       0x58 All_deRFarm7_At91sam7x512_Rf231_Gcc/Obj/vcpVirtualUsart.o
 .text.VCP_CloseUsart
                0x00000000       0x20 All_deRFarm7_At91sam7x512_Rf231_Gcc/Obj/vcpVirtualUsart.o
 .text.VCP_WriteUsart
                0x00000000      0x100 All_deRFarm7_At91sam7x512_Rf231_Gcc/Obj/vcpVirtualUsart.o
 .text.vcpEnableReadPipe
                0x00000000       0x94 All_deRFarm7_At91sam7x512_Rf231_Gcc/Obj/vcpVirtualUsart.o
 .text.vcpRcvCallback
                0x00000000       0x40 All_deRFarm7_At91sam7x512_Rf231_Gcc/Obj/vcpVirtualUsart.o
 .text.VCP_ReadUsart
                0x00000000       0xec All_deRFarm7_At91sam7x512_Rf231_Gcc/Obj/vcpVirtualUsart.o
 .text.VCP_IsTxEmpty
                0x00000000       0x28 All_deRFarm7_At91sam7x512_Rf231_Gcc/Obj/vcpVirtualUsart.o
 .debug_info    0x00000000      0xd74 All_deRFarm7_At91sam7x512_Rf231_Gcc/Obj/vcpVirtualUsart.o
 .debug_abbrev  0x00000000      0x25e All_deRFarm7_At91sam7x512_Rf231_Gcc/Obj/vcpVirtualUsart.o
 .debug_loc     0x00000000      0x8dd All_deRFarm7_At91sam7x512_Rf231_Gcc/Obj/vcpVirtualUsart.o
 .debug_aranges
                0x00000000       0x58 All_deRFarm7_At91sam7x512_Rf231_Gcc/Obj/vcpVirtualUsart.o
 .debug_ranges  0x00000000       0x48 All_deRFarm7_At91sam7x512_Rf231_Gcc/Obj/vcpVirtualUsart.o
 .debug_line    0x00000000      0x47e All_deRFarm7_At91sam7x512_Rf231_Gcc/Obj/vcpVirtualUsart.o
 .debug_str     0x00000000      0x8d6 All_deRFarm7_At91sam7x512_Rf231_Gcc/Obj/vcpVirtualUsart.o
 .comment       0x00000000       0x31 All_deRFarm7_At91sam7x512_Rf231_Gcc/Obj/vcpVirtualUsart.o
 .ARM.attributes
                0x00000000       0x30 All_deRFarm7_At91sam7x512_Rf231_Gcc/Obj/vcpVirtualUsart.o
 .debug_frame   0x00000000       0xf0 All_deRFarm7_At91sam7x512_Rf231_Gcc/Obj/vcpVirtualUsart.o
 COMMON         0x00000000        0x2 All_deRFarm7_At91sam7x512_Rf231_Gcc/Obj/vcpVirtualUsart.o
 .text          0x00000000        0x0 All_deRFarm7_At91sam7x512_Rf231_Gcc/Obj/vcpCdcProtocol.o
 .data          0x00000000        0x0 All_deRFarm7_At91sam7x512_Rf231_Gcc/Obj/vcpCdcProtocol.o
 .bss           0x00000000        0x0 All_deRFarm7_At91sam7x512_Rf231_Gcc/Obj/vcpCdcProtocol.o
 .text.vcpResponseSetLineCoding
                0x00000000        0xc All_deRFarm7_At91sam7x512_Rf231_Gcc/Obj/vcpCdcProtocol.o
 .text.vcpGetBaudRate
                0x00000000       0x18 All_deRFarm7_At91sam7x512_Rf231_Gcc/Obj/vcpCdcProtocol.o
 .text.vcpGetStopBits
                0x00000000        0xc All_deRFarm7_At91sam7x512_Rf231_Gcc/Obj/vcpCdcProtocol.o
 .text.vcpGetParity
                0x00000000        0xc All_deRFarm7_At91sam7x512_Rf231_Gcc/Obj/vcpCdcProtocol.o
 .text.vcpGetDataLength
                0x00000000        0xc All_deRFarm7_At91sam7x512_Rf231_Gcc/Obj/vcpCdcProtocol.o
 .text.vcpResponseGetLineCoding
                0x00000000       0x30 All_deRFarm7_At91sam7x512_Rf231_Gcc/Obj/vcpCdcProtocol.o
 .text.vcpSetBaudRate
                0x00000000        0x2 All_deRFarm7_At91sam7x512_Rf231_Gcc/Obj/vcpCdcProtocol.o
 .text.vcpSetStopBits
                0x00000000        0x2 All_deRFarm7_At91sam7x512_Rf231_Gcc/Obj/vcpCdcProtocol.o
 .text.vcpSetParity
                0x00000000        0x2 All_deRFarm7_At91sam7x512_Rf231_Gcc/Obj/vcpCdcProtocol.o
 .text.vcpSetDataLength
                0x00000000        0x2 All_deRFarm7_At91sam7x512_Rf231_Gcc/Obj/vcpCdcProtocol.o
 .text.vcpRequestHandler
                0x00000000       0x44 All_deRFarm7_At91sam7x512_Rf231_Gcc/Obj/vcpCdcProtocol.o
 .debug_info    0x00000000      0xac4 All_deRFarm7_At91sam7x512_Rf231_Gcc/Obj/vcpCdcProtocol.o
 .debug_abbrev  0x00000000      0x225 All_deRFarm7_At91sam7x512_Rf231_Gcc/Obj/vcpCdcProtocol.o
 .debug_loc     0x00000000       0xb3 All_deRFarm7_At91sam7x512_Rf231_Gcc/Obj/vcpCdcProtocol.o
 .debug_aranges
                0x00000000       0x70 All_deRFarm7_At91sam7x512_Rf231_Gcc/Obj/vcpCdcProtocol.o
 .debug_ranges  0x00000000       0x78 All_deRFarm7_At91sam7x512_Rf231_Gcc/Obj/vcpCdcProtocol.o
 .debug_line    0x00000000      0x3a2 All_deRFarm7_At91sam7x512_Rf231_Gcc/Obj/vcpCdcProtocol.o
 .debug_str     0x00000000      0x890 All_deRFarm7_At91sam7x512_Rf231_Gcc/Obj/vcpCdcProtocol.o
 .comment       0x00000000       0x31 All_deRFarm7_At91sam7x512_Rf231_Gcc/Obj/vcpCdcProtocol.o
 .ARM.attributes
                0x00000000       0x30 All_deRFarm7_At91sam7x512_Rf231_Gcc/Obj/vcpCdcProtocol.o
 .debug_frame   0x00000000       0xe0 All_deRFarm7_At91sam7x512_Rf231_Gcc/Obj/vcpCdcProtocol.o
 COMMON         0x00000000       0x16 All_deRFarm7_At91sam7x512_Rf231_Gcc/Obj/vcpCdcProtocol.o
 .text          0x00000000        0x0 All_deRFarm7_At91sam7x512_Rf231_Gcc/Obj/usbSetupProcess.o
 .data          0x00000000        0x0 All_deRFarm7_At91sam7x512_Rf231_Gcc/Obj/usbSetupProcess.o
 .bss           0x00000000        0x0 All_deRFarm7_At91sam7x512_Rf231_Gcc/Obj/usbSetupProcess.o
 .text.setupProcessRequestHandler
                0x00000000       0x12 All_deRFarm7_At91sam7x512_Rf231_Gcc/Obj/usbSetupProcess.o
 .debug_info    0x00000000      0x15e All_deRFarm7_At91sam7x512_Rf231_Gcc/Obj/usbSetupProcess.o
 .debug_abbrev  0x00000000       0xc7 All_deRFarm7_At91sam7x512_Rf231_Gcc/Obj/usbSetupProcess.o
 .debug_loc     0x00000000       0x41 All_deRFarm7_At91sam7x512_Rf231_Gcc/Obj/usbSetupProcess.o
 .debug_aranges
                0x00000000       0x20 All_deRFarm7_At91sam7x512_Rf231_Gcc/Obj/usbSetupProcess.o
 .debug_ranges  0x00000000       0x10 All_deRFarm7_At91sam7x512_Rf231_Gcc/Obj/usbSetupProcess.o
 .debug_line    0x00000000      0x199 All_deRFarm7_At91sam7x512_Rf231_Gcc/Obj/usbSetupProcess.o
 .debug_str     0x00000000      0x1d2 All_deRFarm7_At91sam7x512_Rf231_Gcc/Obj/usbSetupProcess.o
 .comment       0x00000000       0x31 All_deRFarm7_At91sam7x512_Rf231_Gcc/Obj/usbSetupProcess.o
 .ARM.attributes
                0x00000000       0x30 All_deRFarm7_At91sam7x512_Rf231_Gcc/Obj/usbSetupProcess.o
 .debug_frame   0x00000000       0x28 All_deRFarm7_At91sam7x512_Rf231_Gcc/Obj/usbSetupProcess.o
 .text          0x00000000        0x0 All_deRFarm7_At91sam7x512_Rf231_Gcc/Obj/usbDescriptors.o
 .data          0x00000000        0x0 All_deRFarm7_At91sam7x512_Rf231_Gcc/Obj/usbDescriptors.o
 .bss           0x00000000        0x0 All_deRFarm7_At91sam7x512_Rf231_Gcc/Obj/usbDescriptors.o
 .rodata        0x00000000       0x31 All_deRFarm7_At91sam7x512_Rf231_Gcc/Obj/usbDescriptors.o
 .debug_info    0x00000000      0x2a0 All_deRFarm7_At91sam7x512_Rf231_Gcc/Obj/usbDescriptors.o
 .debug_abbrev  0x00000000       0x79 All_deRFarm7_At91sam7x512_Rf231_Gcc/Obj/usbDescriptors.o
 .debug_aranges
                0x00000000       0x18 All_deRFarm7_At91sam7x512_Rf231_Gcc/Obj/usbDescriptors.o
 .debug_line    0x00000000      0x14c All_deRFarm7_At91sam7x512_Rf231_Gcc/Obj/usbDescriptors.o
 .debug_str     0x00000000      0x302 All_deRFarm7_At91sam7x512_Rf231_Gcc/Obj/usbDescriptors.o
 .comment       0x00000000       0x31 All_deRFarm7_At91sam7x512_Rf231_Gcc/Obj/usbDescriptors.o
 .ARM.attributes
                0x00000000       0x30 All_deRFarm7_At91sam7x512_Rf231_Gcc/Obj/usbDescriptors.o
 .text          0x00000000        0x0 All_deRFarm7_At91sam7x512_Rf231_Gcc/Obj/usbEnumeration.o
 .data          0x00000000       0x16 All_deRFarm7_At91sam7x512_Rf231_Gcc/Obj/usbEnumeration.o
 .bss           0x00000000        0x2 All_deRFarm7_At91sam7x512_Rf231_Gcc/Obj/usbEnumeration.o
 .text.sendZLP  0x00000000       0x16 All_deRFarm7_At91sam7x512_Rf231_Gcc/Obj/usbEnumeration.o
 .text.runtimeSetConfiguration
                0x00000000       0x10 All_deRFarm7_At91sam7x512_Rf231_Gcc/Obj/usbEnumeration.o
 .text.runtimeGetDescriptorHandler
                0x00000000       0x74 All_deRFarm7_At91sam7x512_Rf231_Gcc/Obj/usbEnumeration.o
 .text.runtimeRequestHandler
                0x00000000       0x6c All_deRFarm7_At91sam7x512_Rf231_Gcc/Obj/usbEnumeration.o
 .text.usbBusResetAction
                0x00000000       0x14 All_deRFarm7_At91sam7x512_Rf231_Gcc/Obj/usbEnumeration.o
 .text.usbSetSerialNumber
                0x00000000       0x30 All_deRFarm7_At91sam7x512_Rf231_Gcc/Obj/usbEnumeration.o
 .debug_info    0x00000000      0x603 All_deRFarm7_At91sam7x512_Rf231_Gcc/Obj/usbEnumeration.o
 .debug_abbrev  0x00000000      0x20e All_deRFarm7_At91sam7x512_Rf231_Gcc/Obj/usbEnumeration.o
 .debug_loc     0x00000000      0x2d3 All_deRFarm7_At91sam7x512_Rf231_Gcc/Obj/usbEnumeration.o
 .debug_aranges
                0x00000000       0x48 All_deRFarm7_At91sam7x512_Rf231_Gcc/Obj/usbEnumeration.o
 .debug_ranges  0x00000000       0x50 All_deRFarm7_At91sam7x512_Rf231_Gcc/Obj/usbEnumeration.o
 .debug_line    0x00000000      0x238 All_deRFarm7_At91sam7x512_Rf231_Gcc/Obj/usbEnumeration.o
 .debug_str     0x00000000      0x47b All_deRFarm7_At91sam7x512_Rf231_Gcc/Obj/usbEnumeration.o
 .comment       0x00000000       0x31 All_deRFarm7_At91sam7x512_Rf231_Gcc/Obj/usbEnumeration.o
 .ARM.attributes
                0x00000000       0x30 All_deRFarm7_At91sam7x512_Rf231_Gcc/Obj/usbEnumeration.o
 .debug_frame   0x00000000       0xb4 All_deRFarm7_At91sam7x512_Rf231_Gcc/Obj/usbEnumeration.o
 .text          0x00000000        0x0 All_deRFarm7_At91sam7x512_Rf231_Gcc/Obj/i2ceeprom.o
 .data          0x00000000       0x20 All_deRFarm7_At91sam7x512_Rf231_Gcc/Obj/i2ceeprom.o
 .bss           0x00000000        0x8 All_deRFarm7_At91sam7x512_Rf231_Gcc/Obj/i2ceeprom.o
 .text.bspEepromDone
                0x00000000       0x20 All_deRFarm7_At91sam7x512_Rf231_Gcc/Obj/i2ceeprom.o
 .text.BSP_OpenI2cForEeprom
                0x00000000       0x14 All_deRFarm7_At91sam7x512_Rf231_Gcc/Obj/i2ceeprom.o
 .text.BSP_CloseI2cForEeprom
                0x00000000       0x14 All_deRFarm7_At91sam7x512_Rf231_Gcc/Obj/i2ceeprom.o
 .text.BSP_ReadEeprom
                0x00000000       0x44 All_deRFarm7_At91sam7x512_Rf231_Gcc/Obj/i2ceeprom.o
 .text.BSP_WriteEeprom
                0x00000000       0x44 All_deRFarm7_At91sam7x512_Rf231_Gcc/Obj/i2ceeprom.o
 .debug_info    0x00000000      0x661 All_deRFarm7_At91sam7x512_Rf231_Gcc/Obj/i2ceeprom.o
 .debug_abbrev  0x00000000      0x18a All_deRFarm7_At91sam7x512_Rf231_Gcc/Obj/i2ceeprom.o
 .debug_loc     0x00000000      0x1c7 All_deRFarm7_At91sam7x512_Rf231_Gcc/Obj/i2ceeprom.o
 .debug_aranges
                0x00000000       0x40 All_deRFarm7_At91sam7x512_Rf231_Gcc/Obj/i2ceeprom.o
 .debug_ranges  0x00000000       0x30 All_deRFarm7_At91sam7x512_Rf231_Gcc/Obj/i2ceeprom.o
 .debug_line    0x00000000      0x2af All_deRFarm7_At91sam7x512_Rf231_Gcc/Obj/i2ceeprom.o
 .debug_str     0x00000000      0x5a4 All_deRFarm7_At91sam7x512_Rf231_Gcc/Obj/i2ceeprom.o
 .comment       0x00000000       0x31 All_deRFarm7_At91sam7x512_Rf231_Gcc/Obj/i2ceeprom.o
 .ARM.attributes
                0x00000000       0x30 All_deRFarm7_At91sam7x512_Rf231_Gcc/Obj/i2ceeprom.o
 .debug_frame   0x00000000       0x98 All_deRFarm7_At91sam7x512_Rf231_Gcc/Obj/i2ceeprom.o
 COMMON         0x00000000        0xc All_deRFarm7_At91sam7x512_Rf231_Gcc/Obj/i2ceeprom.o
 .text          0x00000000        0x0 All_deRFarm7_At91sam7x512_Rf231_Gcc/Obj/fakeBSP.o
 .data          0x00000000        0x0 All_deRFarm7_At91sam7x512_Rf231_Gcc/Obj/fakeBSP.o
 .bss           0x00000000        0x0 All_deRFarm7_At91sam7x512_Rf231_Gcc/Obj/fakeBSP.o
 .text.BSP_OpenButtons
                0x00000000        0x4 All_deRFarm7_At91sam7x512_Rf231_Gcc/Obj/fakeBSP.o
 .text.BSP_CloseButtons
                0x00000000        0x4 All_deRFarm7_At91sam7x512_Rf231_Gcc/Obj/fakeBSP.o
 .text.BSP_ReadButtonsState
                0x00000000        0x4 All_deRFarm7_At91sam7x512_Rf231_Gcc/Obj/fakeBSP.o
 .text.BSP_ReadSliders
                0x00000000        0x4 All_deRFarm7_At91sam7x512_Rf231_Gcc/Obj/fakeBSP.o
 .text          0x00000000        0x0 All_deRFarm7_At91sam7x512_Rf231_Gcc/Obj/leds.o
 .data          0x00000000        0x0 All_deRFarm7_At91sam7x512_Rf231_Gcc/Obj/leds.o
 .bss           0x00000000        0x0 All_deRFarm7_At91sam7x512_Rf231_Gcc/Obj/leds.o
 .text.BSP_CloseLeds
                0x00000000       0x44 All_deRFarm7_At91sam7x512_Rf231_Gcc/Obj/leds.o
 .text          0x00000000        0x0 All_deRFarm7_At91sam7x512_Rf231_Gcc/Obj/bspTaskManager.o
 .data          0x00000000        0x0 All_deRFarm7_At91sam7x512_Rf231_Gcc/Obj/bspTaskManager.o
 .text          0x00000000        0x0 All_deRFarm7_At91sam7x512_Rf231_Gcc/Obj/joystick.o
 .data          0x00000000        0x0 All_deRFarm7_At91sam7x512_Rf231_Gcc/Obj/joystick.o
 .text.joystickHandler
                0x00000000       0xb4 All_deRFarm7_At91sam7x512_Rf231_Gcc/Obj/joystick.o
 .text.bspDisableJoystickPIOInterrupt
                0x00000000       0x10 All_deRFarm7_At91sam7x512_Rf231_Gcc/Obj/joystick.o
 .text.bspInitJoystick
                0x00000000       0x50 All_deRFarm7_At91sam7x512_Rf231_Gcc/Obj/joystick.o
 .text.BSP_OpenJoystick
                0x00000000       0x24 All_deRFarm7_At91sam7x512_Rf231_Gcc/Obj/joystick.o
 .text.BSP_CloseJoystick
                0x00000000       0x28 All_deRFarm7_At91sam7x512_Rf231_Gcc/Obj/joystick.o
 .text.BSP_ReadJoystickState
                0x00000000        0xc All_deRFarm7_At91sam7x512_Rf231_Gcc/Obj/joystick.o
 .text          0x00000000        0x0 All_deRFarm7_At91sam7x512_Rf231_Gcc/Obj/csPersistentMem.o
 .data          0x00000000        0x0 All_deRFarm7_At91sam7x512_Rf231_Gcc/Obj/csPersistentMem.o
 .bss           0x00000000        0x0 All_deRFarm7_At91sam7x512_Rf231_Gcc/Obj/csPersistentMem.o
 .debug_info    0x00000000     0x1e14 All_deRFarm7_At91sam7x512_Rf231_Gcc/Obj/csPersistentMem.o
 .debug_abbrev  0x00000000      0x160 All_deRFarm7_At91sam7x512_Rf231_Gcc/Obj/csPersistentMem.o
 .debug_aranges
                0x00000000       0x18 All_deRFarm7_At91sam7x512_Rf231_Gcc/Obj/csPersistentMem.o
 .debug_line    0x00000000      0x398 All_deRFarm7_At91sam7x512_Rf231_Gcc/Obj/csPersistentMem.o
 .debug_str     0x00000000     0x2d5b All_deRFarm7_At91sam7x512_Rf231_Gcc/Obj/csPersistentMem.o
 .comment       0x00000000       0x31 All_deRFarm7_At91sam7x512_Rf231_Gcc/Obj/csPersistentMem.o
 .ARM.attributes
                0x00000000       0x30 All_deRFarm7_At91sam7x512_Rf231_Gcc/Obj/csPersistentMem.o
 .text          0x00000000        0x0 All_deRFarm7_At91sam7x512_Rf231_Gcc/Obj/csMem.o
 .bss           0x00000000        0x0 All_deRFarm7_At91sam7x512_Rf231_Gcc/Obj/csMem.o
 .text          0x00000000        0x0 All_deRFarm7_At91sam7x512_Rf231_Gcc/Obj/configServer.o
 .data          0x00000000        0x0 All_deRFarm7_At91sam7x512_Rf231_Gcc/Obj/configServer.o
 .bss           0x00000000        0x0 All_deRFarm7_At91sam7x512_Rf231_Gcc/Obj/configServer.o
 .text.CS_PdsDefaultValue
                0x00000000       0x98 All_deRFarm7_At91sam7x512_Rf231_Gcc/Obj/configServer.o
 .text          0x00000000        0x0 ./../../../../BitCloud/lib/libHAL_deRFarm7_At91sam7x512_48Mhz_Gcc.a(atomic.o)
 .data          0x00000000        0x0 ./../../../../BitCloud/lib/libHAL_deRFarm7_At91sam7x512_48Mhz_Gcc.a(atomic.o)
 .bss           0x00000000        0x0 ./../../../../BitCloud/lib/libHAL_deRFarm7_At91sam7x512_48Mhz_Gcc.a(atomic.o)
 .text          0x00000000        0x0 ./../../../../BitCloud/lib/libHAL_deRFarm7_At91sam7x512_48Mhz_Gcc.a(appTimer.o)
 .data          0x00000000        0x0 ./../../../../BitCloud/lib/libHAL_deRFarm7_At91sam7x512_48Mhz_Gcc.a(appTimer.o)
 .text          0x00000000        0x0 ./../../../../BitCloud/lib/libHAL_deRFarm7_At91sam7x512_48Mhz_Gcc.a(usart.o)
 .data          0x00000000        0x0 ./../../../../BitCloud/lib/libHAL_deRFarm7_At91sam7x512_48Mhz_Gcc.a(usart.o)
 .text.halPostUsartTask
                0x00000000       0x44 ./../../../../BitCloud/lib/libHAL_deRFarm7_At91sam7x512_48Mhz_Gcc.a(usart.o)
 .text.halUsartRxBufferFiller
                0x00000000       0x94 ./../../../../BitCloud/lib/libHAL_deRFarm7_At91sam7x512_48Mhz_Gcc.a(usart.o)
 .text.halIsUsartChannelCorrect
                0x00000000       0x20 ./../../../../BitCloud/lib/libHAL_deRFarm7_At91sam7x512_48Mhz_Gcc.a(usart.o)
 .text.HAL_IsTxEmpty
                0x00000000       0x5c ./../../../../BitCloud/lib/libHAL_deRFarm7_At91sam7x512_48Mhz_Gcc.a(usart.o)
 .text.HAL_ReadUsartDtr
                0x00000000       0x58 ./../../../../BitCloud/lib/libHAL_deRFarm7_At91sam7x512_48Mhz_Gcc.a(usart.o)
 .text.HAL_ReadUsartRts
                0x00000000       0x58 ./../../../../BitCloud/lib/libHAL_deRFarm7_At91sam7x512_48Mhz_Gcc.a(usart.o)
 .text.HAL_OffUsartCts
                0x00000000       0x58 ./../../../../BitCloud/lib/libHAL_deRFarm7_At91sam7x512_48Mhz_Gcc.a(usart.o)
 .text.HAL_OnUsartCts
                0x00000000       0x58 ./../../../../BitCloud/lib/libHAL_deRFarm7_At91sam7x512_48Mhz_Gcc.a(usart.o)
 .text.HAL_ReadUsart
                0x00000000       0xd8 ./../../../../BitCloud/lib/libHAL_deRFarm7_At91sam7x512_48Mhz_Gcc.a(usart.o)
 .text.HAL_WriteUsart
                0x00000000       0xe4 ./../../../../BitCloud/lib/libHAL_deRFarm7_At91sam7x512_48Mhz_Gcc.a(usart.o)
 .text.HAL_CloseUsart
                0x00000000       0x78 ./../../../../BitCloud/lib/libHAL_deRFarm7_At91sam7x512_48Mhz_Gcc.a(usart.o)
 .text.HAL_OpenUsart
                0x00000000       0xd8 ./../../../../BitCloud/lib/libHAL_deRFarm7_At91sam7x512_48Mhz_Gcc.a(usart.o)
 .text          0x00000000        0x0 ./../../../../BitCloud/lib/libHAL_deRFarm7_At91sam7x512_48Mhz_Gcc.a(i2cPacket.o)
 .data          0x00000000        0x0 ./../../../../BitCloud/lib/libHAL_deRFarm7_At91sam7x512_48Mhz_Gcc.a(i2cPacket.o)
 .bss           0x00000000        0x0 ./../../../../BitCloud/lib/libHAL_deRFarm7_At91sam7x512_48Mhz_Gcc.a(i2cPacket.o)
 .text.HAL_OpenI2cPacket
                0x00000000       0x30 ./../../../../BitCloud/lib/libHAL_deRFarm7_At91sam7x512_48Mhz_Gcc.a(i2cPacket.o)
 .text.HAL_CloseI2cPacket
                0x00000000       0x2c ./../../../../BitCloud/lib/libHAL_deRFarm7_At91sam7x512_48Mhz_Gcc.a(i2cPacket.o)
 .text.HAL_WriteI2cPacket
                0x00000000       0x40 ./../../../../BitCloud/lib/libHAL_deRFarm7_At91sam7x512_48Mhz_Gcc.a(i2cPacket.o)
 .text.HAL_ReadI2cPacket
                0x00000000       0x40 ./../../../../BitCloud/lib/libHAL_deRFarm7_At91sam7x512_48Mhz_Gcc.a(i2cPacket.o)
 .text          0x00000000        0x0 ./../../../../BitCloud/lib/libHAL_deRFarm7_At91sam7x512_48Mhz_Gcc.a(timer.o)
 .data          0x00000000        0x0 ./../../../../BitCloud/lib/libHAL_deRFarm7_At91sam7x512_48Mhz_Gcc.a(timer.o)
 .bss           0x00000000        0x0 ./../../../../BitCloud/lib/libHAL_deRFarm7_At91sam7x512_48Mhz_Gcc.a(timer.o)
 .text          0x00000000        0x0 ./../../../../BitCloud/lib/libHAL_deRFarm7_At91sam7x512_48Mhz_Gcc.a(halAppClock.o)
 .data          0x00000000        0x0 ./../../../../BitCloud/lib/libHAL_deRFarm7_At91sam7x512_48Mhz_Gcc.a(halAppClock.o)
 .text.halStopAppClock
                0x00000000       0x1c ./../../../../BitCloud/lib/libHAL_deRFarm7_At91sam7x512_48Mhz_Gcc.a(halAppClock.o)
 .text.HAL_ReadFreq
                0x00000000        0xc ./../../../../BitCloud/lib/libHAL_deRFarm7_At91sam7x512_48Mhz_Gcc.a(halAppClock.o)
 .text          0x00000000        0x0 ./../../../../BitCloud/lib/libHAL_deRFarm7_At91sam7x512_48Mhz_Gcc.a(halUsart.o)
 .data          0x00000000        0x0 ./../../../../BitCloud/lib/libHAL_deRFarm7_At91sam7x512_48Mhz_Gcc.a(halUsart.o)
 .bss           0x00000000        0x0 ./../../../../BitCloud/lib/libHAL_deRFarm7_At91sam7x512_48Mhz_Gcc.a(halUsart.o)
 .text.usart1Handler
                0x00000000       0xa0 ./../../../../BitCloud/lib/libHAL_deRFarm7_At91sam7x512_48Mhz_Gcc.a(halUsart.o)
 .text.usart0Handler
                0x00000000       0xa0 ./../../../../BitCloud/lib/libHAL_deRFarm7_At91sam7x512_48Mhz_Gcc.a(halUsart.o)
 .text.halFoundationsInit
                0x00000000       0xcc ./../../../../BitCloud/lib/libHAL_deRFarm7_At91sam7x512_48Mhz_Gcc.a(halUsart.o)
 .text.halSetUsartConfig
                0x00000000       0x7c ./../../../../BitCloud/lib/libHAL_deRFarm7_At91sam7x512_48Mhz_Gcc.a(halUsart.o)
 .comment       0x00000000       0x31 ./../../../../BitCloud/lib/libHAL_deRFarm7_At91sam7x512_48Mhz_Gcc.a(halUsart.o)
 .ARM.attributes
                0x00000000       0x30 ./../../../../BitCloud/lib/libHAL_deRFarm7_At91sam7x512_48Mhz_Gcc.a(halUsart.o)
 .text          0x00000000        0x0 ./../../../../BitCloud/lib/libHAL_deRFarm7_At91sam7x512_48Mhz_Gcc.a(halTwi.o)
 .data          0x00000000        0x0 ./../../../../BitCloud/lib/libHAL_deRFarm7_At91sam7x512_48Mhz_Gcc.a(halTwi.o)
 .bss           0x00000000        0x0 ./../../../../BitCloud/lib/libHAL_deRFarm7_At91sam7x512_48Mhz_Gcc.a(halTwi.o)
 .text.halInitI2c
                0x00000000       0x74 ./../../../../BitCloud/lib/libHAL_deRFarm7_At91sam7x512_48Mhz_Gcc.a(halTwi.o)
 .text.halWriteByteDoneI2c
                0x00000000       0x80 ./../../../../BitCloud/lib/libHAL_deRFarm7_At91sam7x512_48Mhz_Gcc.a(halTwi.o)
 .text.halReadByteDoneI2c
                0x00000000       0x64 ./../../../../BitCloud/lib/libHAL_deRFarm7_At91sam7x512_48Mhz_Gcc.a(halTwi.o)
 .text.halSendStartWriteI2c
                0x00000000       0x6c ./../../../../BitCloud/lib/libHAL_deRFarm7_At91sam7x512_48Mhz_Gcc.a(halTwi.o)
 .text.halSendStartReadI2c
                0x00000000       0x5c ./../../../../BitCloud/lib/libHAL_deRFarm7_At91sam7x512_48Mhz_Gcc.a(halTwi.o)
 .text.halI2cBusError
                0x00000000       0x64 ./../../../../BitCloud/lib/libHAL_deRFarm7_At91sam7x512_48Mhz_Gcc.a(halTwi.o)
 .text.halTransactionCompleteI2c
                0x00000000       0x80 ./../../../../BitCloud/lib/libHAL_deRFarm7_At91sam7x512_48Mhz_Gcc.a(halTwi.o)
 .text.twiHandler
                0x00000000       0xa4 ./../../../../BitCloud/lib/libHAL_deRFarm7_At91sam7x512_48Mhz_Gcc.a(halTwi.o)
 .comment       0x00000000       0x31 ./../../../../BitCloud/lib/libHAL_deRFarm7_At91sam7x512_48Mhz_Gcc.a(halTwi.o)
 .ARM.attributes
                0x00000000       0x30 ./../../../../BitCloud/lib/libHAL_deRFarm7_At91sam7x512_48Mhz_Gcc.a(halTwi.o)
 .text          0x00000000        0x0 ./../../../../BitCloud/lib/libHAL_deRFarm7_At91sam7x512_48Mhz_Gcc.a(halMacIsr.o)
 .data          0x00000000        0x0 ./../../../../BitCloud/lib/libHAL_deRFarm7_At91sam7x512_48Mhz_Gcc.a(halMacIsr.o)
 .bss           0x00000000        0x0 ./../../../../BitCloud/lib/libHAL_deRFarm7_At91sam7x512_48Mhz_Gcc.a(halMacIsr.o)
 .text          0x00000000        0x0 ./../../../../BitCloud/lib/libHAL_deRFarm7_At91sam7x512_48Mhz_Gcc.a(halTaskManager.o)
 .data          0x00000000        0x0 ./../../../../BitCloud/lib/libHAL_deRFarm7_At91sam7x512_48Mhz_Gcc.a(halTaskManager.o)
 .text          0x00000000        0x0 ./../../../../BitCloud/lib/libHAL_deRFarm7_At91sam7x512_48Mhz_Gcc.a(adc.o)
 .data          0x00000000        0x0 ./../../../../BitCloud/lib/libHAL_deRFarm7_At91sam7x512_48Mhz_Gcc.a(adc.o)
 .text.HAL_OpenAdc
                0x00000000       0x3c ./../../../../BitCloud/lib/libHAL_deRFarm7_At91sam7x512_48Mhz_Gcc.a(adc.o)
 .text.HAL_ReadAdc
                0x00000000       0x24 ./../../../../BitCloud/lib/libHAL_deRFarm7_At91sam7x512_48Mhz_Gcc.a(adc.o)
 .text.HAL_CloseAdc
                0x00000000       0x24 ./../../../../BitCloud/lib/libHAL_deRFarm7_At91sam7x512_48Mhz_Gcc.a(adc.o)
 .text          0x00000000        0x0 ./../../../../BitCloud/lib/libHAL_deRFarm7_At91sam7x512_48Mhz_Gcc.a(halAdc.o)
 .data          0x00000000        0x0 ./../../../../BitCloud/lib/libHAL_deRFarm7_At91sam7x512_48Mhz_Gcc.a(halAdc.o)
 .bss           0x00000000        0x0 ./../../../../BitCloud/lib/libHAL_deRFarm7_At91sam7x512_48Mhz_Gcc.a(halAdc.o)
 .text.adcHandler
                0x00000000       0xa0 ./../../../../BitCloud/lib/libHAL_deRFarm7_At91sam7x512_48Mhz_Gcc.a(halAdc.o)
 .text.halOpenAdc
                0x00000000       0xc0 ./../../../../BitCloud/lib/libHAL_deRFarm7_At91sam7x512_48Mhz_Gcc.a(halAdc.o)
 .text.halStartAdc
                0x00000000       0x38 ./../../../../BitCloud/lib/libHAL_deRFarm7_At91sam7x512_48Mhz_Gcc.a(halAdc.o)
 .text.halCloseAdc
                0x00000000       0x10 ./../../../../BitCloud/lib/libHAL_deRFarm7_At91sam7x512_48Mhz_Gcc.a(halAdc.o)
 .rodata        0x00000000       0x15 ./../../../../BitCloud/lib/libHAL_deRFarm7_At91sam7x512_48Mhz_Gcc.a(halAdc.o)
 .comment       0x00000000       0x31 ./../../../../BitCloud/lib/libHAL_deRFarm7_At91sam7x512_48Mhz_Gcc.a(halAdc.o)
 .ARM.attributes
                0x00000000       0x30 ./../../../../BitCloud/lib/libHAL_deRFarm7_At91sam7x512_48Mhz_Gcc.a(halAdc.o)
 .text          0x00000000        0x0 ./../../../../BitCloud/lib/libHAL_deRFarm7_At91sam7x512_48Mhz_Gcc.a(halSpi.o)
 .data          0x00000000        0x0 ./../../../../BitCloud/lib/libHAL_deRFarm7_At91sam7x512_48Mhz_Gcc.a(halSpi.o)
 .text.spi0Handler
                0x00000000       0xe0 ./../../../../BitCloud/lib/libHAL_deRFarm7_At91sam7x512_48Mhz_Gcc.a(halSpi.o)
 .text.HAL_WriteDataRfSpi
                0x00000000       0x24 ./../../../../BitCloud/lib/libHAL_deRFarm7_At91sam7x512_48Mhz_Gcc.a(halSpi.o)
 .text.HAL_EnableReadDataRfSpi
                0x00000000       0x24 ./../../../../BitCloud/lib/libHAL_deRFarm7_At91sam7x512_48Mhz_Gcc.a(halSpi.o)
 .text.halInitMemSpi
                0x00000000       0x88 ./../../../../BitCloud/lib/libHAL_deRFarm7_At91sam7x512_48Mhz_Gcc.a(halSpi.o)
 .text.halStartDataMemSpi
                0x00000000       0x94 ./../../../../BitCloud/lib/libHAL_deRFarm7_At91sam7x512_48Mhz_Gcc.a(halSpi.o)
 .text          0x00000000        0x0 ./../../../../BitCloud/lib/libHAL_deRFarm7_At91sam7x512_48Mhz_Gcc.a(dbgPort.o)
 .data          0x00000000        0x0 ./../../../../BitCloud/lib/libHAL_deRFarm7_At91sam7x512_48Mhz_Gcc.a(dbgPort.o)
 .bss           0x00000000        0x0 ./../../../../BitCloud/lib/libHAL_deRFarm7_At91sam7x512_48Mhz_Gcc.a(dbgPort.o)
 .text.dbgu_print_buff
                0x00000000       0x34 ./../../../../BitCloud/lib/libHAL_deRFarm7_At91sam7x512_48Mhz_Gcc.a(dbgPort.o)
 .text          0x00000000        0x0 ./../../../../BitCloud/lib/libHAL_deRFarm7_At91sam7x512_48Mhz_Gcc.a(halRfCtrl.o)
 .data          0x00000000        0x0 ./../../../../BitCloud/lib/libHAL_deRFarm7_At91sam7x512_48Mhz_Gcc.a(halRfCtrl.o)
 .bss           0x00000000        0x0 ./../../../../BitCloud/lib/libHAL_deRFarm7_At91sam7x512_48Mhz_Gcc.a(halRfCtrl.o)
 .text.HAL_MakeInRfSlpTr
                0x00000000       0x14 ./../../../../BitCloud/lib/libHAL_deRFarm7_At91sam7x512_48Mhz_Gcc.a(halRfCtrl.o)
 .text.HAL_MakeOutRfSlpTr
                0x00000000       0x10 ./../../../../BitCloud/lib/libHAL_deRFarm7_At91sam7x512_48Mhz_Gcc.a(halRfCtrl.o)
 .text          0x00000000        0x0 ./../../../../BitCloud/lib/libBc_All_At91sam7x512_Rf231_Gcc.a(aps.o)
 .data          0x00000000        0x0 ./../../../../BitCloud/lib/libBc_All_At91sam7x512_Rf231_Gcc.a(aps.o)
 .text.APS_DeactivateBindRecords
                0x00000000       0x40 ./../../../../BitCloud/lib/libBc_All_At91sam7x512_Rf231_Gcc.a(aps.o)
 .text.APS_ActivateBindRecords
                0x00000000       0x40 ./../../../../BitCloud/lib/libBc_All_At91sam7x512_Rf231_Gcc.a(aps.o)
 .text.APS_NextBindingEntry
                0x00000000       0x38 ./../../../../BitCloud/lib/libBc_All_At91sam7x512_Rf231_Gcc.a(aps.o)
 .text.APS_UnregisterEndpointReq
                0x00000000       0x28 ./../../../../BitCloud/lib/libBc_All_At91sam7x512_Rf231_Gcc.a(aps.o)
 .text.apsSetNoIndicationFlag
                0x00000000       0x2c ./../../../../BitCloud/lib/libBc_All_At91sam7x512_Rf231_Gcc.a(aps.o)
 .text.APS_StopEndpointIndication
                0x00000000        0xe ./../../../../BitCloud/lib/libBc_All_At91sam7x512_Rf231_Gcc.a(aps.o)
 .text.APS_ResumeEndpointIndication
                0x00000000        0xe ./../../../../BitCloud/lib/libBc_All_At91sam7x512_Rf231_Gcc.a(aps.o)
 .text.APS_AddGroupReq
                0x00000000       0x1e ./../../../../BitCloud/lib/libBc_All_At91sam7x512_Rf231_Gcc.a(aps.o)
 .text.APS_RemoveGroupReq
                0x00000000       0x1e ./../../../../BitCloud/lib/libBc_All_At91sam7x512_Rf231_Gcc.a(aps.o)
 .text.APS_RemoveAllGroupsReq
                0x00000000       0x1c ./../../../../BitCloud/lib/libBc_All_At91sam7x512_Rf231_Gcc.a(aps.o)
 .text.APS_IsStarted
                0x00000000       0x18 ./../../../../BitCloud/lib/libBc_All_At91sam7x512_Rf231_Gcc.a(aps.o)
 .text          0x00000000        0x0 ./../../../../BitCloud/lib/libBc_All_At91sam7x512_Rf231_Gcc.a(macenvPib.o)
 .data          0x00000000        0x0 ./../../../../BitCloud/lib/libBc_All_At91sam7x512_Rf231_Gcc.a(macenvPib.o)
 .bss           0x00000000        0x0 ./../../../../BitCloud/lib/libBc_All_At91sam7x512_Rf231_Gcc.a(macenvPib.o)
 .text          0x00000000        0x0 ./../../../../BitCloud/lib/libBc_All_At91sam7x512_Rf231_Gcc.a(nwk.o)
 .data          0x00000000        0x0 ./../../../../BitCloud/lib/libBc_All_At91sam7x512_Rf231_Gcc.a(nwk.o)
 .bss           0x00000000       0x30 ./../../../../BitCloud/lib/libBc_All_At91sam7x512_Rf231_Gcc.a(nwk.o)
 .text.nwkAddressMacSetConf
                0x00000000       0x44 ./../../../../BitCloud/lib/libBc_All_At91sam7x512_Rf231_Gcc.a(nwk.o)
 .text.NWK_SetShortAddr
                0x00000000       0x3c ./../../../../BitCloud/lib/libBc_All_At91sam7x512_Rf231_Gcc.a(nwk.o)
 .text.NWK_AddGroup
                0x00000000       0x3c ./../../../../BitCloud/lib/libBc_All_At91sam7x512_Rf231_Gcc.a(nwk.o)
 .text.NWK_RemoveGroup
                0x00000000       0x4c ./../../../../BitCloud/lib/libBc_All_At91sam7x512_Rf231_Gcc.a(nwk.o)
 .text.NWK_RemoveAllGroups
                0x00000000       0x40 ./../../../../BitCloud/lib/libBc_All_At91sam7x512_Rf231_Gcc.a(nwk.o)
 .text.NWK_GroupCapacity
                0x00000000       0x2c ./../../../../BitCloud/lib/libBc_All_At91sam7x512_Rf231_Gcc.a(nwk.o)
 .text.NWK_NextGroup
                0x00000000       0x30 ./../../../../BitCloud/lib/libBc_All_At91sam7x512_Rf231_Gcc.a(nwk.o)
 .text.NWK_SetExtPanId
                0x00000000       0x14 ./../../../../BitCloud/lib/libBc_All_At91sam7x512_Rf231_Gcc.a(nwk.o)
 .text.NWK_GetUpdateId
                0x00000000        0xc ./../../../../BitCloud/lib/libBc_All_At91sam7x512_Rf231_Gcc.a(nwk.o)
 .text.NWK_SetSymLink
                0x00000000        0xc ./../../../../BitCloud/lib/libBc_All_At91sam7x512_Rf231_Gcc.a(nwk.o)
 .text.NWK_GetProtocolVersion
                0x00000000        0xc ./../../../../BitCloud/lib/libBc_All_At91sam7x512_Rf231_Gcc.a(nwk.o)
 .text.NWK_FindAnyRouteAtFirstTime
                0x00000000        0xc ./../../../../BitCloud/lib/libBc_All_At91sam7x512_Rf231_Gcc.a(nwk.o)
 .text.NWK_NextEDChild
                0x00000000       0x40 ./../../../../BitCloud/lib/libBc_All_At91sam7x512_Rf231_Gcc.a(nwk.o)
 .text.NWK_SetRejoinPermit
                0x00000000       0x14 ./../../../../BitCloud/lib/libBc_All_At91sam7x512_Rf231_Gcc.a(nwk.o)
 .text.NWK_GetNextHop
                0x00000000       0x30 ./../../../../BitCloud/lib/libBc_All_At91sam7x512_Rf231_Gcc.a(nwk.o)
 .text.NWK_SetFailRouteOrder
                0x00000000       0x20 ./../../../../BitCloud/lib/libBc_All_At91sam7x512_Rf231_Gcc.a(nwk.o)
 .text          0x00000000        0x0 ./../../../../BitCloud/lib/libBc_All_At91sam7x512_Rf231_Gcc.a(phyRfIrqDispatcher.o)
 .data          0x00000000        0x0 ./../../../../BitCloud/lib/libBc_All_At91sam7x512_Rf231_Gcc.a(phyRfIrqDispatcher.o)
 .bss           0x00000000        0x0 ./../../../../BitCloud/lib/libBc_All_At91sam7x512_Rf231_Gcc.a(phyRfIrqDispatcher.o)
 .text          0x00000000        0x0 ./../../../../BitCloud/lib/libBc_All_At91sam7x512_Rf231_Gcc.a(phyRtimerIrqDispatcher.o)
 .data          0x00000000        0x0 ./../../../../BitCloud/lib/libBc_All_At91sam7x512_Rf231_Gcc.a(phyRtimerIrqDispatcher.o)
 .bss           0x00000000        0x0 ./../../../../BitCloud/lib/libBc_All_At91sam7x512_Rf231_Gcc.a(phyRtimerIrqDispatcher.o)
 .text          0x00000000        0x0 ./../../../../BitCloud/lib/libBc_All_At91sam7x512_Rf231_Gcc.a(queue.o)
 .data          0x00000000        0x0 ./../../../../BitCloud/lib/libBc_All_At91sam7x512_Rf231_Gcc.a(queue.o)
 .bss           0x00000000        0x0 ./../../../../BitCloud/lib/libBc_All_At91sam7x512_Rf231_Gcc.a(queue.o)
 .text          0x00000000        0x0 ./../../../../BitCloud/lib/libBc_All_At91sam7x512_Rf231_Gcc.a(sysDuplicateTable.o)
 .data          0x00000000        0x0 ./../../../../BitCloud/lib/libBc_All_At91sam7x512_Rf231_Gcc.a(sysDuplicateTable.o)
 .bss           0x00000000        0x0 ./../../../../BitCloud/lib/libBc_All_At91sam7x512_Rf231_Gcc.a(sysDuplicateTable.o)
 .text          0x00000000        0x0 ./../../../../BitCloud/lib/libBc_All_At91sam7x512_Rf231_Gcc.a(sysEvents.o)
 .data          0x00000000        0x0 ./../../../../BitCloud/lib/libBc_All_At91sam7x512_Rf231_Gcc.a(sysEvents.o)
 .text.SYS_UnsubscribeFromEvent
                0x00000000       0x4c ./../../../../BitCloud/lib/libBc_All_At91sam7x512_Rf231_Gcc.a(sysEvents.o)
 .text          0x00000000        0x0 ./../../../../BitCloud/lib/libBc_All_At91sam7x512_Rf231_Gcc.a(sysTimer.o)
 .data          0x00000000        0x0 ./../../../../BitCloud/lib/libBc_All_At91sam7x512_Rf231_Gcc.a(sysTimer.o)
 .bss           0x00000000        0x0 ./../../../../BitCloud/lib/libBc_All_At91sam7x512_Rf231_Gcc.a(sysTimer.o)
 .text          0x00000000        0x0 ./../../../../BitCloud/lib/libBc_All_At91sam7x512_Rf231_Gcc.a(taskManager.o)
 .data          0x00000000        0x0 ./../../../../BitCloud/lib/libBc_All_At91sam7x512_Rf231_Gcc.a(taskManager.o)
 .text.SYS_ForceRunTask
                0x00000000        0xc ./../../../../BitCloud/lib/libBc_All_At91sam7x512_Rf231_Gcc.a(taskManager.o)
 .text          0x00000000        0x0 ./../../../../BitCloud/lib/libBc_All_At91sam7x512_Rf231_Gcc.a(zdo.o)
 .bss           0x00000000        0x0 ./../../../../BitCloud/lib/libBc_All_At91sam7x512_Rf231_Gcc.a(zdo.o)
 .text.setTxPowerConf
                0x00000000       0x34 ./../../../../BitCloud/lib/libBc_All_At91sam7x512_Rf231_Gcc.a(zdo.o)
 .text.ZDO_GetNwkStatus
                0x00000000       0x18 ./../../../../BitCloud/lib/libBc_All_At91sam7x512_Rf231_Gcc.a(zdo.o)
 .text.ZDO_NotifyGeneral
                0x00000000        0xc ./../../../../BitCloud/lib/libBc_All_At91sam7x512_Rf231_Gcc.a(zdo.o)
 .text.ZDO_GetParentAddr
                0x00000000       0x52 ./../../../../BitCloud/lib/libBc_All_At91sam7x512_Rf231_Gcc.a(zdo.o)
 .text.ZDO_GetChildrenAddr
                0x00000000       0x8e ./../../../../BitCloud/lib/libBc_All_At91sam7x512_Rf231_Gcc.a(zdo.o)
 .text.ZDO_SetTxPowerReq
                0x00000000       0x58 ./../../../../BitCloud/lib/libBc_All_At91sam7x512_Rf231_Gcc.a(zdo.o)
 .text.ZDO_GetNeibAmount
                0x00000000       0x4a ./../../../../BitCloud/lib/libBc_All_At91sam7x512_Rf231_Gcc.a(zdo.o)
 .text.ZDO_GetNeibTable
                0x00000000       0xac ./../../../../BitCloud/lib/libBc_All_At91sam7x512_Rf231_Gcc.a(zdo.o)
 .text.ZDO_WakeUpReq
                0x00000000       0x20 ./../../../../BitCloud/lib/libBc_All_At91sam7x512_Rf231_Gcc.a(zdo.o)
 .text.zdoResetNetworkConf
                0x00000000       0x30 ./../../../../BitCloud/lib/libBc_All_At91sam7x512_Rf231_Gcc.a(zdo.o)
 .text.ZDO_SoftwareResetReq
                0x00000000       0x14 ./../../../../BitCloud/lib/libBc_All_At91sam7x512_Rf231_Gcc.a(zdo.o)
 .text.ZDO_ResetNetworkReq
                0x00000000       0x34 ./../../../../BitCloud/lib/libBc_All_At91sam7x512_Rf231_Gcc.a(zdo.o)
 .text          0x00000000        0x0 ./../../../../BitCloud/lib/libBc_All_At91sam7x512_Rf231_Gcc.a(bcSysSleep.o)
 .data          0x00000000        0x0 ./../../../../BitCloud/lib/libBc_All_At91sam7x512_Rf231_Gcc.a(bcSysSleep.o)
 .bss           0x00000000        0x0 ./../../../../BitCloud/lib/libBc_All_At91sam7x512_Rf231_Gcc.a(bcSysSleep.o)
 .text          0x00000000        0x0 ./../../../../BitCloud/lib/libBc_All_At91sam7x512_Rf231_Gcc.a(macMem.o)
 .data          0x00000000        0x0 ./../../../../BitCloud/lib/libBc_All_At91sam7x512_Rf231_Gcc.a(macMem.o)
 .bss           0x00000000        0x0 ./../../../../BitCloud/lib/libBc_All_At91sam7x512_Rf231_Gcc.a(macMem.o)
 .text          0x00000000        0x0 ./../../../../BitCloud/lib/libBc_All_At91sam7x512_Rf231_Gcc.a(machwdManager.o)
 .data          0x00000000        0x0 ./../../../../BitCloud/lib/libBc_All_At91sam7x512_Rf231_Gcc.a(machwdManager.o)
 .text.RF_RandomSeqReq
                0x00000000       0x10 ./../../../../BitCloud/lib/libBc_All_At91sam7x512_Rf231_Gcc.a(machwdManager.o)
 .text.RF_CalibrationReq
                0x00000000       0x10 ./../../../../BitCloud/lib/libBc_All_At91sam7x512_Rf231_Gcc.a(machwdManager.o)
 .text.RF_RegWriteReq
                0x00000000       0x10 ./../../../../BitCloud/lib/libBc_All_At91sam7x512_Rf231_Gcc.a(machwdManager.o)
 .text.RF_RegReadReq
                0x00000000       0x10 ./../../../../BitCloud/lib/libBc_All_At91sam7x512_Rf231_Gcc.a(machwdManager.o)
 .text          0x00000000        0x0 ./../../../../BitCloud/lib/libBc_All_At91sam7x512_Rf231_Gcc.a(machwdRegAccessHandler.o)
 .data          0x00000000        0x0 ./../../../../BitCloud/lib/libBc_All_At91sam7x512_Rf231_Gcc.a(machwdRegAccessHandler.o)
 .bss           0x00000000        0x0 ./../../../../BitCloud/lib/libBc_All_At91sam7x512_Rf231_Gcc.a(machwdRegAccessHandler.o)
 .text          0x00000000        0x0 ./../../../../BitCloud/lib/libBc_All_At91sam7x512_Rf231_Gcc.a(machwdResetHandler.o)
 .data          0x00000000        0x0 ./../../../../BitCloud/lib/libBc_All_At91sam7x512_Rf231_Gcc.a(machwdResetHandler.o)
 .bss           0x00000000        0x0 ./../../../../BitCloud/lib/libBc_All_At91sam7x512_Rf231_Gcc.a(machwdResetHandler.o)
 .text          0x00000000        0x0 ./../../../../BitCloud/lib/libBc_All_At91sam7x512_Rf231_Gcc.a(machwdRndHandler.o)
 .data          0x00000000        0x0 ./../../../../BitCloud/lib/libBc_All_At91sam7x512_Rf231_Gcc.a(machwdRndHandler.o)
 .bss           0x00000000        0x0 ./../../../../BitCloud/lib/libBc_All_At91sam7x512_Rf231_Gcc.a(machwdRndHandler.o)
 .text          0x00000000        0x0 ./../../../../BitCloud/lib/libBc_All_At91sam7x512_Rf231_Gcc.a(machwdRxBuffer.o)
 .data          0x00000000        0x0 ./../../../../BitCloud/lib/libBc_All_At91sam7x512_Rf231_Gcc.a(machwdRxBuffer.o)
 .bss           0x00000000        0x0 ./../../../../BitCloud/lib/libBc_All_At91sam7x512_Rf231_Gcc.a(machwdRxBuffer.o)
 .text          0x00000000        0x0 ./../../../../BitCloud/lib/libBc_All_At91sam7x512_Rf231_Gcc.a(machwdRxFrameHandler.o)
 .data          0x00000000        0x0 ./../../../../BitCloud/lib/libBc_All_At91sam7x512_Rf231_Gcc.a(machwdRxFrameHandler.o)
 .bss           0x00000000        0x0 ./../../../../BitCloud/lib/libBc_All_At91sam7x512_Rf231_Gcc.a(machwdRxFrameHandler.o)
 .text          0x00000000        0x0 ./../../../../BitCloud/lib/libBc_All_At91sam7x512_Rf231_Gcc.a(machwdSetHandler.o)
 .data          0x00000000        0x0 ./../../../../BitCloud/lib/libBc_All_At91sam7x512_Rf231_Gcc.a(machwdSetHandler.o)
 .text.machwdIsBeaconRxMode
                0x00000000        0xc ./../../../../BitCloud/lib/libBc_All_At91sam7x512_Rf231_Gcc.a(machwdSetHandler.o)
 .text          0x00000000        0x0 ./../../../../BitCloud/lib/libBc_All_At91sam7x512_Rf231_Gcc.a(machwdTrxCtrl.o)
 .data          0x00000000        0x0 ./../../../../BitCloud/lib/libBc_All_At91sam7x512_Rf231_Gcc.a(machwdTrxCtrl.o)
 .bss           0x00000000        0x0 ./../../../../BitCloud/lib/libBc_All_At91sam7x512_Rf231_Gcc.a(machwdTrxCtrl.o)
 .text          0x00000000        0x0 ./../../../../BitCloud/lib/libBc_All_At91sam7x512_Rf231_Gcc.a(machwdTrxHandler.o)
 .data          0x00000000        0x0 ./../../../../BitCloud/lib/libBc_All_At91sam7x512_Rf231_Gcc.a(machwdTrxHandler.o)
 .bss           0x00000000        0x0 ./../../../../BitCloud/lib/libBc_All_At91sam7x512_Rf231_Gcc.a(machwdTrxHandler.o)
 .text          0x00000000        0x0 ./../../../../BitCloud/lib/libBc_All_At91sam7x512_Rf231_Gcc.a(machwdTxFrameHandler.o)
 .data          0x00000000        0x0 ./../../../../BitCloud/lib/libBc_All_At91sam7x512_Rf231_Gcc.a(machwdTxFrameHandler.o)
 .bss           0x00000000        0x0 ./../../../../BitCloud/lib/libBc_All_At91sam7x512_Rf231_Gcc.a(machwdTxFrameHandler.o)
 .text          0x00000000        0x0 ./../../../../BitCloud/lib/libBc_All_At91sam7x512_Rf231_Gcc.a(machwiManager.o)
 .data          0x00000000        0x0 ./../../../../BitCloud/lib/libBc_All_At91sam7x512_Rf231_Gcc.a(machwiManager.o)
 .bss           0x00000000        0x0 ./../../../../BitCloud/lib/libBc_All_At91sam7x512_Rf231_Gcc.a(machwiManager.o)
 .text.MAC_OrphanResp
                0x00000000       0x10 ./../../../../BitCloud/lib/libBc_All_At91sam7x512_Rf231_Gcc.a(machwiManager.o)
 .text.MAC_PurgeReq
                0x00000000       0x10 ./../../../../BitCloud/lib/libBc_All_At91sam7x512_Rf231_Gcc.a(machwiManager.o)
 .text          0x00000000        0x0 ./../../../../BitCloud/lib/libBc_All_At91sam7x512_Rf231_Gcc.a(machwiOrphanHandler.o)
 .data          0x00000000        0x0 ./../../../../BitCloud/lib/libBc_All_At91sam7x512_Rf231_Gcc.a(machwiOrphanHandler.o)
 .bss           0x00000000        0x0 ./../../../../BitCloud/lib/libBc_All_At91sam7x512_Rf231_Gcc.a(machwiOrphanHandler.o)
 .text          0x00000000        0x0 ./../../../../BitCloud/lib/libBc_All_At91sam7x512_Rf231_Gcc.a(machwiPanServer.o)
 .data          0x00000000        0x0 ./../../../../BitCloud/lib/libBc_All_At91sam7x512_Rf231_Gcc.a(machwiPanServer.o)
 .bss           0x00000000        0x0 ./../../../../BitCloud/lib/libBc_All_At91sam7x512_Rf231_Gcc.a(machwiPanServer.o)
 .text          0x00000000        0x0 ./../../../../BitCloud/lib/libBc_All_At91sam7x512_Rf231_Gcc.a(machwiPollHandler.o)
 .data          0x00000000        0x0 ./../../../../BitCloud/lib/libBc_All_At91sam7x512_Rf231_Gcc.a(machwiPollHandler.o)
 .bss           0x00000000        0x0 ./../../../../BitCloud/lib/libBc_All_At91sam7x512_Rf231_Gcc.a(machwiPollHandler.o)
 .text          0x00000000        0x0 ./../../../../BitCloud/lib/libBc_All_At91sam7x512_Rf231_Gcc.a(machwiPurgeHandler.o)
 .data          0x00000000        0x0 ./../../../../BitCloud/lib/libBc_All_At91sam7x512_Rf231_Gcc.a(machwiPurgeHandler.o)
 .bss           0x00000000        0x0 ./../../../../BitCloud/lib/libBc_All_At91sam7x512_Rf231_Gcc.a(machwiPurgeHandler.o)
 .text          0x00000000        0x0 ./../../../../BitCloud/lib/libBc_All_At91sam7x512_Rf231_Gcc.a(machwiResetHandler.o)
 .data          0x00000000        0x0 ./../../../../BitCloud/lib/libBc_All_At91sam7x512_Rf231_Gcc.a(machwiResetHandler.o)
 .bss           0x00000000        0x0 ./../../../../BitCloud/lib/libBc_All_At91sam7x512_Rf231_Gcc.a(machwiResetHandler.o)
 .text          0x00000000        0x0 ./../../../../BitCloud/lib/libBc_All_At91sam7x512_Rf231_Gcc.a(machwiRxEnableHandler.o)
 .data          0x00000000        0x0 ./../../../../BitCloud/lib/libBc_All_At91sam7x512_Rf231_Gcc.a(machwiRxEnableHandler.o)
 .bss           0x00000000        0x0 ./../../../../BitCloud/lib/libBc_All_At91sam7x512_Rf231_Gcc.a(machwiRxEnableHandler.o)
 .text          0x00000000        0x0 ./../../../../BitCloud/lib/libBc_All_At91sam7x512_Rf231_Gcc.a(machwiScanHandler.o)
 .data          0x00000000        0x0 ./../../../../BitCloud/lib/libBc_All_At91sam7x512_Rf231_Gcc.a(machwiScanHandler.o)
 .text          0x00000000        0x0 ./../../../../BitCloud/lib/libBc_All_At91sam7x512_Rf231_Gcc.a(machwiSetGetHandler.o)
 .data          0x00000000        0x0 ./../../../../BitCloud/lib/libBc_All_At91sam7x512_Rf231_Gcc.a(machwiSetGetHandler.o)
 .bss           0x00000000        0x0 ./../../../../BitCloud/lib/libBc_All_At91sam7x512_Rf231_Gcc.a(machwiSetGetHandler.o)
 .text          0x00000000        0x0 ./../../../../BitCloud/lib/libBc_All_At91sam7x512_Rf231_Gcc.a(machwiStartHandler.o)
 .data          0x00000000        0x0 ./../../../../BitCloud/lib/libBc_All_At91sam7x512_Rf231_Gcc.a(machwiStartHandler.o)
 .bss           0x00000000        0x0 ./../../../../BitCloud/lib/libBc_All_At91sam7x512_Rf231_Gcc.a(machwiStartHandler.o)
 .text          0x00000000        0x0 ./../../../../BitCloud/lib/libBc_All_At91sam7x512_Rf231_Gcc.a(machwiSwitchRxCtrl.o)
 .data          0x00000000        0x0 ./../../../../BitCloud/lib/libBc_All_At91sam7x512_Rf231_Gcc.a(machwiSwitchRxCtrl.o)
 .bss           0x00000000        0x0 ./../../../../BitCloud/lib/libBc_All_At91sam7x512_Rf231_Gcc.a(machwiSwitchRxCtrl.o)
 .text          0x00000000        0x0 ./../../../../BitCloud/lib/libBc_All_At91sam7x512_Rf231_Gcc.a(machwiTransactionHandler.o)
 .data          0x00000000        0x0 ./../../../../BitCloud/lib/libBc_All_At91sam7x512_Rf231_Gcc.a(machwiTransactionHandler.o)
 .bss           0x00000000        0x0 ./../../../../BitCloud/lib/libBc_All_At91sam7x512_Rf231_Gcc.a(machwiTransactionHandler.o)
 .text          0x00000000        0x0 ./../../../../BitCloud/lib/libBc_All_At91sam7x512_Rf231_Gcc.a(machwiTransactionQueue.o)
 .data          0x00000000        0x0 ./../../../../BitCloud/lib/libBc_All_At91sam7x512_Rf231_Gcc.a(machwiTransactionQueue.o)
 .bss           0x00000000        0x0 ./../../../../BitCloud/lib/libBc_All_At91sam7x512_Rf231_Gcc.a(machwiTransactionQueue.o)
 .text          0x00000000        0x0 ./../../../../BitCloud/lib/libBc_All_At91sam7x512_Rf231_Gcc.a(phyInit.o)
 .data          0x00000000        0x0 ./../../../../BitCloud/lib/libBc_All_At91sam7x512_Rf231_Gcc.a(phyInit.o)
 .bss           0x00000000        0x0 ./../../../../BitCloud/lib/libBc_All_At91sam7x512_Rf231_Gcc.a(phyInit.o)
 .text          0x00000000        0x0 ./../../../../BitCloud/lib/libBc_All_At91sam7x512_Rf231_Gcc.a(phyRegAccess.o)
 .data          0x00000000        0x0 ./../../../../BitCloud/lib/libBc_All_At91sam7x512_Rf231_Gcc.a(phyRegAccess.o)
 .bss           0x00000000        0x0 ./../../../../BitCloud/lib/libBc_All_At91sam7x512_Rf231_Gcc.a(phyRegAccess.o)
 .text          0x00000000        0x0 ./../../../../BitCloud/lib/libBc_All_At91sam7x512_Rf231_Gcc.a(phyReset.o)
 .data          0x00000000        0x0 ./../../../../BitCloud/lib/libBc_All_At91sam7x512_Rf231_Gcc.a(phyReset.o)
 .bss           0x00000000        0x0 ./../../../../BitCloud/lib/libBc_All_At91sam7x512_Rf231_Gcc.a(phyReset.o)
 .text          0x00000000        0x0 ./../../../../BitCloud/lib/libBc_All_At91sam7x512_Rf231_Gcc.a(phyRfSpiProto.o)
 .data          0x00000000        0x0 ./../../../../BitCloud/lib/libBc_All_At91sam7x512_Rf231_Gcc.a(phyRfSpiProto.o)
 .bss           0x00000000        0x0 ./../../../../BitCloud/lib/libBc_All_At91sam7x512_Rf231_Gcc.a(phyRfSpiProto.o)
 .text.phyStartReadFrame
                0x00000000       0x12 ./../../../../BitCloud/lib/libBc_All_At91sam7x512_Rf231_Gcc.a(phyRfSpiProto.o)
 .text          0x00000000        0x0 ./../../../../BitCloud/lib/libBc_All_At91sam7x512_Rf231_Gcc.a(phyRnd.o)
 .data          0x00000000        0x0 ./../../../../BitCloud/lib/libBc_All_At91sam7x512_Rf231_Gcc.a(phyRnd.o)
 .bss           0x00000000        0x0 ./../../../../BitCloud/lib/libBc_All_At91sam7x512_Rf231_Gcc.a(phyRnd.o)
 .text          0x00000000        0x0 ./../../../../BitCloud/lib/libBc_All_At91sam7x512_Rf231_Gcc.a(phyRxFrame.o)
 .data          0x00000000        0x0 ./../../../../BitCloud/lib/libBc_All_At91sam7x512_Rf231_Gcc.a(phyRxFrame.o)
 .bss           0x00000000        0x0 ./../../../../BitCloud/lib/libBc_All_At91sam7x512_Rf231_Gcc.a(phyRxFrame.o)
 .text          0x00000000        0x0 ./../../../../BitCloud/lib/libBc_All_At91sam7x512_Rf231_Gcc.a(phySet.o)
 .data          0x00000000        0x0 ./../../../../BitCloud/lib/libBc_All_At91sam7x512_Rf231_Gcc.a(phySet.o)
 .bss           0x00000000        0x0 ./../../../../BitCloud/lib/libBc_All_At91sam7x512_Rf231_Gcc.a(phySet.o)
 .text          0x00000000        0x0 ./../../../../BitCloud/lib/libBc_All_At91sam7x512_Rf231_Gcc.a(phySetTrxState.o)
 .data          0x00000000        0x0 ./../../../../BitCloud/lib/libBc_All_At91sam7x512_Rf231_Gcc.a(phySetTrxState.o)
 .bss           0x00000000        0x0 ./../../../../BitCloud/lib/libBc_All_At91sam7x512_Rf231_Gcc.a(phySetTrxState.o)
 .text          0x00000000        0x0 ./../../../../BitCloud/lib/libBc_All_At91sam7x512_Rf231_Gcc.a(phyStateMachine.o)
 .data          0x00000000        0x0 ./../../../../BitCloud/lib/libBc_All_At91sam7x512_Rf231_Gcc.a(phyStateMachine.o)
 .bss           0x00000000        0x0 ./../../../../BitCloud/lib/libBc_All_At91sam7x512_Rf231_Gcc.a(phyStateMachine.o)
 .text          0x00000000        0x0 ./../../../../BitCloud/lib/libBc_All_At91sam7x512_Rf231_Gcc.a(phyTxFrame.o)
 .data          0x00000000        0x0 ./../../../../BitCloud/lib/libBc_All_At91sam7x512_Rf231_Gcc.a(phyTxFrame.o)
 .bss           0x00000000        0x0 ./../../../../BitCloud/lib/libBc_All_At91sam7x512_Rf231_Gcc.a(phyTxFrame.o)
 .text          0x00000000        0x0 ./../../../../BitCloud/lib/libBc_All_At91sam7x512_Rf231_Gcc.a(machwdCalibHandler.o)
 .data          0x00000000        0x0 ./../../../../BitCloud/lib/libBc_All_At91sam7x512_Rf231_Gcc.a(machwdCalibHandler.o)
 .bss           0x00000000        0x0 ./../../../../BitCloud/lib/libBc_All_At91sam7x512_Rf231_Gcc.a(machwdCalibHandler.o)
 .text          0x00000000        0x0 ./../../../../BitCloud/lib/libBc_All_At91sam7x512_Rf231_Gcc.a(machwdEdHandler.o)
 .data          0x00000000        0x0 ./../../../../BitCloud/lib/libBc_All_At91sam7x512_Rf231_Gcc.a(machwdEdHandler.o)
 .bss           0x00000000        0x0 ./../../../../BitCloud/lib/libBc_All_At91sam7x512_Rf231_Gcc.a(machwdEdHandler.o)
 .text          0x00000000        0x0 ./../../../../BitCloud/lib/libBc_All_At91sam7x512_Rf231_Gcc.a(machwdFrameRoutine.o)
 .data          0x00000000        0x0 ./../../../../BitCloud/lib/libBc_All_At91sam7x512_Rf231_Gcc.a(machwdFrameRoutine.o)
 .bss           0x00000000        0x0 ./../../../../BitCloud/lib/libBc_All_At91sam7x512_Rf231_Gcc.a(machwdFrameRoutine.o)
 .text          0x00000000        0x0 ./../../../../BitCloud/lib/libBc_All_At91sam7x512_Rf231_Gcc.a(machwdHandlerCtrl.o)
 .data          0x00000000        0x0 ./../../../../BitCloud/lib/libBc_All_At91sam7x512_Rf231_Gcc.a(machwdHandlerCtrl.o)
 .bss           0x00000000        0x0 ./../../../../BitCloud/lib/libBc_All_At91sam7x512_Rf231_Gcc.a(machwdHandlerCtrl.o)
 .text          0x00000000        0x0 ./../../../../BitCloud/lib/libBc_All_At91sam7x512_Rf231_Gcc.a(machwiAssociateHandler.o)
 .data          0x00000000        0x0 ./../../../../BitCloud/lib/libBc_All_At91sam7x512_Rf231_Gcc.a(machwiAssociateHandler.o)
 .bss           0x00000000        0x0 ./../../../../BitCloud/lib/libBc_All_At91sam7x512_Rf231_Gcc.a(machwiAssociateHandler.o)
 .text          0x00000000        0x0 ./../../../../BitCloud/lib/libBc_All_At91sam7x512_Rf231_Gcc.a(machwiBeaconHandler.o)
 .data          0x00000000        0x0 ./../../../../BitCloud/lib/libBc_All_At91sam7x512_Rf231_Gcc.a(machwiBeaconHandler.o)
 .bss           0x00000000        0x0 ./../../../../BitCloud/lib/libBc_All_At91sam7x512_Rf231_Gcc.a(machwiBeaconHandler.o)
 .text          0x00000000        0x0 ./../../../../BitCloud/lib/libBc_All_At91sam7x512_Rf231_Gcc.a(machwiDataHandler.o)
 .data          0x00000000        0x0 ./../../../../BitCloud/lib/libBc_All_At91sam7x512_Rf231_Gcc.a(machwiDataHandler.o)
 .bss           0x00000000        0x0 ./../../../../BitCloud/lib/libBc_All_At91sam7x512_Rf231_Gcc.a(machwiDataHandler.o)
 .text          0x00000000        0x0 ./../../../../BitCloud/lib/libBc_All_At91sam7x512_Rf231_Gcc.a(phyCalib.o)
 .data          0x00000000        0x0 ./../../../../BitCloud/lib/libBc_All_At91sam7x512_Rf231_Gcc.a(phyCalib.o)
 .bss           0x00000000        0x0 ./../../../../BitCloud/lib/libBc_All_At91sam7x512_Rf231_Gcc.a(phyCalib.o)
 .text          0x00000000        0x0 ./../../../../BitCloud/lib/libBc_All_At91sam7x512_Rf231_Gcc.a(phyEd.o)
 .data          0x00000000        0x0 ./../../../../BitCloud/lib/libBc_All_At91sam7x512_Rf231_Gcc.a(phyEd.o)
 .bss           0x00000000        0x0 ./../../../../BitCloud/lib/libBc_All_At91sam7x512_Rf231_Gcc.a(phyEd.o)
 .data          0x00000000        0x0 ./../../../../BitCloud/lib/FirmwareBoot_Gcc.o
 .bss           0x00000000        0x0 ./../../../../BitCloud/lib/FirmwareBoot_Gcc.o
 .text          0x00000000        0x0 ./../../../../BitCloud/lib/libHAL_deRFarm7_At91sam7x512_48Mhz_Gcc.a(halInit.o)
 .data          0x00000000        0x0 ./../../../../BitCloud/lib/libHAL_deRFarm7_At91sam7x512_48Mhz_Gcc.a(halInit.o)
 .bss           0x00000000        0x0 ./../../../../BitCloud/lib/libHAL_deRFarm7_At91sam7x512_48Mhz_Gcc.a(halInit.o)
 .text          0x00000000        0x0 ./../../../../BitCloud/lib/libHAL_deRFarm7_At91sam7x512_48Mhz_Gcc.a(halLowLevelInit.o)
 .data          0x00000000        0x0 ./../../../../BitCloud/lib/libHAL_deRFarm7_At91sam7x512_48Mhz_Gcc.a(halLowLevelInit.o)
 .bss           0x00000000        0x0 ./../../../../BitCloud/lib/libHAL_deRFarm7_At91sam7x512_48Mhz_Gcc.a(halLowLevelInit.o)
 .text          0x00000000        0x0 ./../../../../BitCloud/lib/libHAL_deRFarm7_At91sam7x512_48Mhz_Gcc.a(halUid.o)
 .data          0x00000000        0x0 ./../../../../BitCloud/lib/libHAL_deRFarm7_At91sam7x512_48Mhz_Gcc.a(halUid.o)
 .text          0x00000000        0x0 ./../../../../BitCloud/lib/libHAL_deRFarm7_At91sam7x512_48Mhz_Gcc.a(sleep.o)
 .data          0x00000000        0x0 ./../../../../BitCloud/lib/libHAL_deRFarm7_At91sam7x512_48Mhz_Gcc.a(sleep.o)
 .text.HAL_Sleep
                0x00000000        0x4 ./../../../../BitCloud/lib/libHAL_deRFarm7_At91sam7x512_48Mhz_Gcc.a(sleep.o)
 .text.HAL_IdleMode
                0x00000000        0x2 ./../../../../BitCloud/lib/libHAL_deRFarm7_At91sam7x512_48Mhz_Gcc.a(sleep.o)
 .data          0x00000000        0x0 /home/bazi/intelligent-house/CodeSourcery/bin/../lib/gcc/arm-none-eabi/4.7.3/thumb/libgcc.a(_thumb1_case_uqi.o)
 .bss           0x00000000        0x0 /home/bazi/intelligent-house/CodeSourcery/bin/../lib/gcc/arm-none-eabi/4.7.3/thumb/libgcc.a(_thumb1_case_uqi.o)
 .data          0x00000000        0x0 /home/bazi/intelligent-house/CodeSourcery/bin/../lib/gcc/arm-none-eabi/4.7.3/thumb/libgcc.a(_thumb1_case_shi.o)
 .bss           0x00000000        0x0 /home/bazi/intelligent-house/CodeSourcery/bin/../lib/gcc/arm-none-eabi/4.7.3/thumb/libgcc.a(_thumb1_case_shi.o)
 .data          0x00000000        0x0 /home/bazi/intelligent-house/CodeSourcery/bin/../lib/gcc/arm-none-eabi/4.7.3/thumb/libgcc.a(_thumb1_case_uhi.o)
 .bss           0x00000000        0x0 /home/bazi/intelligent-house/CodeSourcery/bin/../lib/gcc/arm-none-eabi/4.7.3/thumb/libgcc.a(_thumb1_case_uhi.o)
 .data          0x00000000        0x0 /home/bazi/intelligent-house/CodeSourcery/bin/../lib/gcc/arm-none-eabi/4.7.3/thumb/libgcc.a(_udivsi3.o)
 .bss           0x00000000        0x0 /home/bazi/intelligent-house/CodeSourcery/bin/../lib/gcc/arm-none-eabi/4.7.3/thumb/libgcc.a(_udivsi3.o)
 .data          0x00000000        0x0 /home/bazi/intelligent-house/CodeSourcery/bin/../lib/gcc/arm-none-eabi/4.7.3/thumb/libgcc.a(_dvmd_tls.o)
 .bss           0x00000000        0x0 /home/bazi/intelligent-house/CodeSourcery/bin/../lib/gcc/arm-none-eabi/4.7.3/thumb/libgcc.a(_dvmd_tls.o)
 .data          0x00000000        0x0 /home/bazi/intelligent-house/CodeSourcery/bin/../lib/gcc/arm-none-eabi/4.7.3/../../../../arm-none-eabi/lib/thumb/libc.a(lib_a-memcmp.o)
 .bss           0x00000000        0x0 /home/bazi/intelligent-house/CodeSourcery/bin/../lib/gcc/arm-none-eabi/4.7.3/../../../../arm-none-eabi/lib/thumb/libc.a(lib_a-memcmp.o)
 .data          0x00000000        0x0 /home/bazi/intelligent-house/CodeSourcery/bin/../lib/gcc/arm-none-eabi/4.7.3/../../../../arm-none-eabi/lib/thumb/libc.a(lib_a-memcpy.o)
 .bss           0x00000000        0x0 /home/bazi/intelligent-house/CodeSourcery/bin/../lib/gcc/arm-none-eabi/4.7.3/../../../../arm-none-eabi/lib/thumb/libc.a(lib_a-memcpy.o)
 .data          0x00000000        0x0 /home/bazi/intelligent-house/CodeSourcery/bin/../lib/gcc/arm-none-eabi/4.7.3/../../../../arm-none-eabi/lib/thumb/libc.a(lib_a-memmove.o)
 .bss           0x00000000        0x0 /home/bazi/intelligent-house/CodeSourcery/bin/../lib/gcc/arm-none-eabi/4.7.3/../../../../arm-none-eabi/lib/thumb/libc.a(lib_a-memmove.o)
 .data          0x00000000        0x0 /home/bazi/intelligent-house/CodeSourcery/bin/../lib/gcc/arm-none-eabi/4.7.3/../../../../arm-none-eabi/lib/thumb/libc.a(lib_a-memset.o)
 .bss           0x00000000        0x0 /home/bazi/intelligent-house/CodeSourcery/bin/../lib/gcc/arm-none-eabi/4.7.3/../../../../arm-none-eabi/lib/thumb/libc.a(lib_a-memset.o)
 .data          0x00000000        0x0 /home/bazi/intelligent-house/CodeSourcery/bin/../lib/gcc/arm-none-eabi/4.7.3/../../../../arm-none-eabi/lib/thumb/libc.a(lib_a-rand.o)
 .bss           0x00000000        0x0 /home/bazi/intelligent-house/CodeSourcery/bin/../lib/gcc/arm-none-eabi/4.7.3/../../../../arm-none-eabi/lib/thumb/libc.a(lib_a-rand.o)
 .text          0x00000000        0x0 /home/bazi/intelligent-house/CodeSourcery/bin/../lib/gcc/arm-none-eabi/4.7.3/../../../../arm-none-eabi/lib/thumb/libc.a(lib_a-impure.o)
 .bss           0x00000000        0x0 /home/bazi/intelligent-house/CodeSourcery/bin/../lib/gcc/arm-none-eabi/4.7.3/../../../../arm-none-eabi/lib/thumb/libc.a(lib_a-impure.o)
 .rodata        0x00000000        0x4 /home/bazi/intelligent-house/CodeSourcery/bin/../lib/gcc/arm-none-eabi/4.7.3/../../../../arm-none-eabi/lib/thumb/libc.a(lib_a-impure.o)
 .data          0x00000000        0x0 /home/bazi/intelligent-house/CodeSourcery/bin/../lib/gcc/arm-none-eabi/4.7.3/thumb/libgcc.a(_muldi3.o)
 .bss           0x00000000        0x0 /home/bazi/intelligent-house/CodeSourcery/bin/../lib/gcc/arm-none-eabi/4.7.3/thumb/libgcc.a(_muldi3.o)

Memory Configuration

Name             Origin             Length             Attributes
flash            0x00100000         0x00080000
ram              0x00200000         0x00020000
*default*        0x00000000         0xffffffff

Linker script and memory map

                0x0021fffc                __stack_end__ = 0x21fffc
                0x00000000                . = 0x0

startup         0x00100000      0x1b4
 *(.startup)
 .startup       0x00100000      0x1b4 ./../../../../BitCloud/lib/FirmwareBoot_Gcc.o
                0x00100000                _startup

prog            0x001001b8    0x12870
                0x001001b8                PROVIDE (__pds_ff_start, .)
 *(.pds_ff)
                0x001001b8                PROVIDE (__pds_ff_end, .)
                0x001001b8                PROVIDE (__pds_fd_start, .)
 *(.pds_fd)
                0x001001b8                PROVIDE (__pds_fd_end, .)
 *(.text)
 .text          0x001001b8       0xc0 ./../../../../BitCloud/lib/FirmwareBoot_Gcc.o
                0x001001b8                _start
                0x00100258                endless_loop
 .text          0x00100278       0x14 /home/bazi/intelligent-house/CodeSourcery/bin/../lib/gcc/arm-none-eabi/4.7.3/thumb/libgcc.a(_thumb1_case_uqi.o)
                0x00100278                __gnu_thumb1_case_uqi
 .text          0x0010028c       0x14 /home/bazi/intelligent-house/CodeSourcery/bin/../lib/gcc/arm-none-eabi/4.7.3/thumb/libgcc.a(_thumb1_case_shi.o)
                0x0010028c                __gnu_thumb1_case_shi
 .text          0x001002a0       0x14 /home/bazi/intelligent-house/CodeSourcery/bin/../lib/gcc/arm-none-eabi/4.7.3/thumb/libgcc.a(_thumb1_case_uhi.o)
                0x001002a0                __gnu_thumb1_case_uhi
 .text          0x001002b4      0x11c /home/bazi/intelligent-house/CodeSourcery/bin/../lib/gcc/arm-none-eabi/4.7.3/thumb/libgcc.a(_udivsi3.o)
                0x001002b4                __udivsi3
                0x001002b4                __aeabi_uidiv
                0x001003b0                __aeabi_uidivmod
 .text          0x001003d0        0x4 /home/bazi/intelligent-house/CodeSourcery/bin/../lib/gcc/arm-none-eabi/4.7.3/thumb/libgcc.a(_dvmd_tls.o)
                0x001003d0                __aeabi_ldiv0
                0x001003d0                __aeabi_idiv0
 .text          0x001003d4       0x60 /home/bazi/intelligent-house/CodeSourcery/bin/../lib/gcc/arm-none-eabi/4.7.3/../../../../arm-none-eabi/lib/thumb/libc.a(lib_a-memcmp.o)
                0x001003d4                memcmp
 .text          0x00100434      0x10c /home/bazi/intelligent-house/CodeSourcery/bin/../lib/gcc/arm-none-eabi/4.7.3/../../../../arm-none-eabi/lib/thumb/libc.a(lib_a-memcpy.o)
                0x00100434                memcpy
 .text          0x00100540       0xb0 /home/bazi/intelligent-house/CodeSourcery/bin/../lib/gcc/arm-none-eabi/4.7.3/../../../../arm-none-eabi/lib/thumb/libc.a(lib_a-memmove.o)
                0x00100540                memmove
 .text          0x001005f0       0x9c /home/bazi/intelligent-house/CodeSourcery/bin/../lib/gcc/arm-none-eabi/4.7.3/../../../../arm-none-eabi/lib/thumb/libc.a(lib_a-memset.o)
                0x001005f0                memset
 *fill*         0x0010068c        0x4 
 .text          0x00100690       0x50 /home/bazi/intelligent-house/CodeSourcery/bin/../lib/gcc/arm-none-eabi/4.7.3/../../../../arm-none-eabi/lib/thumb/libc.a(lib_a-rand.o)
                0x00100690                srand
                0x001006a0                rand
 .text          0x001006e0       0x4c /home/bazi/intelligent-house/CodeSourcery/bin/../lib/gcc/arm-none-eabi/4.7.3/thumb/libgcc.a(_muldi3.o)
                0x001006e0                __aeabi_lmul
                0x001006e0                __muldi3
 *(.text*)
 .text.batteryDataReady
                0x0010072c       0x2c All_deRFarm7_At91sam7x512_Rf231_Gcc/Obj/WSNSensorManager.o
 .text.temperatureDataReady
                0x00100758       0x40 All_deRFarm7_At91sam7x512_Rf231_Gcc/Obj/WSNSensorManager.o
 .text.lightDataReady
                0x00100798       0x40 All_deRFarm7_At91sam7x512_Rf231_Gcc/Obj/WSNSensorManager.o
 .text.appStartSensorManager
                0x001007d8       0x14 All_deRFarm7_At91sam7x512_Rf231_Gcc/Obj/WSNSensorManager.o
                0x001007d8                appStartSensorManager
 .text.appStopSensorManager
                0x001007ec       0x14 All_deRFarm7_At91sam7x512_Rf231_Gcc/Obj/WSNSensorManager.o
                0x001007ec                appStopSensorManager
 .text.appGetSensorData
                0x00100800       0x1c All_deRFarm7_At91sam7x512_Rf231_Gcc/Obj/WSNSensorManager.o
                0x00100800                appGetSensorData
 .text.visualizeAppStarting
                0x0010081c        0xc All_deRFarm7_At91sam7x512_Rf231_Gcc/Obj/WSNVisualizer.o
                0x0010081c                visualizeAppStarting
 .text.visualizeNwkStarting
                0x00100828        0xe All_deRFarm7_At91sam7x512_Rf231_Gcc/Obj/WSNVisualizer.o
                0x00100828                visualizeNwkStarting
 .text.visualizeNwkStarted
                0x00100836       0x14 All_deRFarm7_At91sam7x512_Rf231_Gcc/Obj/WSNVisualizer.o
                0x00100836                visualizeNwkStarted
 .text.visualizeNwkLeaving
                0x0010084a        0x2 All_deRFarm7_At91sam7x512_Rf231_Gcc/Obj/WSNVisualizer.o
                0x0010084a                visualizeNwkLeaving
 .text.visualizeNwkLeft
                0x0010084c        0x2 All_deRFarm7_At91sam7x512_Rf231_Gcc/Obj/WSNVisualizer.o
                0x0010084c                visualizeNwkLeft
 .text.visualizeAirTxStarted
                0x0010084e        0x2 All_deRFarm7_At91sam7x512_Rf231_Gcc/Obj/WSNVisualizer.o
                0x0010084e                visualizeAirTxStarted
 .text.visualizeAirTxFInished
                0x00100850        0x2 All_deRFarm7_At91sam7x512_Rf231_Gcc/Obj/WSNVisualizer.o
                0x00100850                visualizeAirTxFInished
 .text.visualizeAirRxFinished
                0x00100852        0x2 All_deRFarm7_At91sam7x512_Rf231_Gcc/Obj/WSNVisualizer.o
                0x00100852                visualizeAirRxFinished
 .text.visualizeWakeUp
                0x00100854        0x2 All_deRFarm7_At91sam7x512_Rf231_Gcc/Obj/WSNVisualizer.o
                0x00100854                visualizeWakeUp
 .text.visualizeSleep
                0x00100856        0x2 All_deRFarm7_At91sam7x512_Rf231_Gcc/Obj/WSNVisualizer.o
                0x00100856                visualizeSleep
 .text.visualizeIdentity
                0x00100858        0xe All_deRFarm7_At91sam7x512_Rf231_Gcc/Obj/WSNVisualizer.o
                0x00100858                visualizeIdentity
 *fill*         0x00100866        0x2 
 .text.appEndDeviceCustomMsgCmdHandler
                0x00100868       0x30 All_deRFarm7_At91sam7x512_Rf231_Gcc/Obj/WSNEndDevice.o
                0x00100868                appEndDeviceCustomMsgCmdHandler
 .text.appEndDeviceWakeUpInd
                0x00100898       0x1c All_deRFarm7_At91sam7x512_Rf231_Gcc/Obj/WSNEndDevice.o
 .text.appEndDeviceTaskReset
                0x001008b4       0x18 All_deRFarm7_At91sam7x512_Rf231_Gcc/Obj/WSNEndDevice.o
 .text.appEndDeviceSleepConf
                0x001008cc       0x20 All_deRFarm7_At91sam7x512_Rf231_Gcc/Obj/WSNEndDevice.o
 .text.deviceTimerFired
                0x001008ec       0x20 All_deRFarm7_At91sam7x512_Rf231_Gcc/Obj/WSNEndDevice.o
 .text.appEndDeviceTaskHandler
                0x0010090c       0xac All_deRFarm7_At91sam7x512_Rf231_Gcc/Obj/WSNEndDevice.o
 .text.appSensorsGot
                0x001009b8       0x1c All_deRFarm7_At91sam7x512_Rf231_Gcc/Obj/WSNEndDevice.o
 .text.appEndDeviceInitialization
                0x001009d4       0x20 All_deRFarm7_At91sam7x512_Rf231_Gcc/Obj/WSNEndDevice.o
 .text.endDeviceRelaysControlHandler
                0x001009f4       0x14 All_deRFarm7_At91sam7x512_Rf231_Gcc/Obj/WSNEndDevice.o
                0x001009f4                endDeviceRelaysControlHandler
 .text.appEndDeviceIdentifyCmdHandler
                0x00100a08       0x20 All_deRFarm7_At91sam7x512_Rf231_Gcc/Obj/WSNEndDevice.o
                0x00100a08                appEndDeviceIdentifyCmdHandler
 .text.appEndDeviceNwkInfoCmdHandler
                0x00100a28       0x52 All_deRFarm7_At91sam7x512_Rf231_Gcc/Obj/WSNEndDevice.o
                0x00100a28                appEndDeviceNwkInfoCmdHandler
 *fill*         0x00100a7a        0x2 
 .text.appEndDeviceGetInterface
                0x00100a7c       0x30 All_deRFarm7_At91sam7x512_Rf231_Gcc/Obj/WSNEndDevice.o
                0x00100a7c                appEndDeviceGetInterface
 .text.msgSenderApsDataConf
                0x00100aac       0x70 All_deRFarm7_At91sam7x512_Rf231_Gcc/Obj/WSNMessageSender.o
 .text.appInitMsgSender
                0x00100b1c       0x34 All_deRFarm7_At91sam7x512_Rf231_Gcc/Obj/WSNMessageSender.o
                0x00100b1c                appInitMsgSender
 .text.appMsgSender
                0x00100b50       0xc4 All_deRFarm7_At91sam7x512_Rf231_Gcc/Obj/WSNMessageSender.o
                0x00100b50                appMsgSender
 .text.appIsTxQueueFree
                0x00100c14       0x20 All_deRFarm7_At91sam7x512_Rf231_Gcc/Obj/WSNMessageSender.o
                0x00100c14                appIsTxQueueFree
 .text.appCreateTxFrame
                0x00100c34       0x64 All_deRFarm7_At91sam7x512_Rf231_Gcc/Obj/WSNMessageSender.o
                0x00100c34                appCreateTxFrame
 .text.appInitCmdHandler
                0x00100c98       0x2c All_deRFarm7_At91sam7x512_Rf231_Gcc/Obj/WSNCommandHandler.o
                0x00100c98                appInitCmdHandler
 .text.appCmdHandler
                0x00100cc4       0x54 All_deRFarm7_At91sam7x512_Rf231_Gcc/Obj/WSNCommandHandler.o
                0x00100cc4                appCmdHandler
 .text.appIsCmdQueueFree
                0x00100d18       0x18 All_deRFarm7_At91sam7x512_Rf231_Gcc/Obj/WSNCommandHandler.o
                0x00100d18                appIsCmdQueueFree
 .text.appCreateCommand
                0x00100d30       0x40 All_deRFarm7_At91sam7x512_Rf231_Gcc/Obj/WSNCommandHandler.o
                0x00100d30                appCreateCommand
 .text.appPostGlobalTask
                0x00100d70       0x24 All_deRFarm7_At91sam7x512_Rf231_Gcc/Obj/WSNDemoApp.o
 .text.appZdpLeaveResp
                0x00100d94       0x20 All_deRFarm7_At91sam7x512_Rf231_Gcc/Obj/WSNDemoApp.o
 .text.startingNetworkTimerFired
                0x00100db4        0xc All_deRFarm7_At91sam7x512_Rf231_Gcc/Obj/WSNDemoApp.o
 .text.appApsDataIndHandler
                0x00100dc0       0x16 All_deRFarm7_At91sam7x512_Rf231_Gcc/Obj/WSNDemoApp.o
 *fill*         0x00100dd6        0x2 
 .text.identifyTimerFired
                0x00100dd8       0x34 All_deRFarm7_At91sam7x512_Rf231_Gcc/Obj/WSNDemoApp.o
 .text.appZdoStartNetworkConf
                0x00100e0c       0x60 All_deRFarm7_At91sam7x512_Rf231_Gcc/Obj/WSNDemoApp.o
 .text.APL_TaskHandler
                0x00100e6c      0x1cc All_deRFarm7_At91sam7x512_Rf231_Gcc/Obj/WSNDemoApp.o
                0x00100e6c                APL_TaskHandler
 .text.ZDO_MgmtNwkUpdateNotf
                0x00101038       0xac All_deRFarm7_At91sam7x512_Rf231_Gcc/Obj/WSNDemoApp.o
                0x00101038                ZDO_MgmtNwkUpdateNotf
 .text.ZDO_WakeUpInd
                0x001010e4       0x1c All_deRFarm7_At91sam7x512_Rf231_Gcc/Obj/WSNDemoApp.o
                0x001010e4                ZDO_WakeUpInd
 .text.appReadLqiRssi
                0x00101100       0x28 All_deRFarm7_At91sam7x512_Rf231_Gcc/Obj/WSNDemoApp.o
                0x00101100                appReadLqiRssi
 .text.appPostSubTaskTask
                0x00101128       0x3c All_deRFarm7_At91sam7x512_Rf231_Gcc/Obj/WSNDemoApp.o
                0x00101128                appPostSubTaskTask
 .text.appPostCmdHandlerTask
                0x00101164       0x38 All_deRFarm7_At91sam7x512_Rf231_Gcc/Obj/WSNDemoApp.o
                0x00101164                appPostCmdHandlerTask
 .text.appPostMsgSenderTask
                0x0010119c       0x3c All_deRFarm7_At91sam7x512_Rf231_Gcc/Obj/WSNDemoApp.o
                0x0010119c                appPostMsgSenderTask
 .text.appLeaveNetwork
                0x001011d8       0x1c All_deRFarm7_At91sam7x512_Rf231_Gcc/Obj/WSNDemoApp.o
                0x001011d8                appLeaveNetwork
 .text.appIsSleepPermitted
                0x001011f4       0x28 All_deRFarm7_At91sam7x512_Rf231_Gcc/Obj/WSNDemoApp.o
                0x001011f4                appIsSleepPermitted
 .text.appStartIdentifyVisualization
                0x0010121c       0x34 All_deRFarm7_At91sam7x512_Rf231_Gcc/Obj/WSNDemoApp.o
                0x0010121c                appStartIdentifyVisualization
 .text.appSetRelayState
                0x00101250       0x16 All_deRFarm7_At91sam7x512_Rf231_Gcc/Obj/WSNDemoApp.o
                0x00101250                appSetRelayState
 *fill*         0x00101266        0x2 
 .text.appGetCmdDescriptor
                0x00101268       0x54 All_deRFarm7_At91sam7x512_Rf231_Gcc/Obj/WSNDemoApp.o
                0x00101268                appGetCmdDescriptor
 .text.ZDO_BindIndication
                0x001012bc        0x2 All_deRFarm7_At91sam7x512_Rf231_Gcc/Obj/WSNDemoApp.o
                0x001012bc                ZDO_BindIndication
 .text.ZDO_UnbindIndication
                0x001012be        0x2 All_deRFarm7_At91sam7x512_Rf231_Gcc/Obj/WSNDemoApp.o
                0x001012be                ZDO_UnbindIndication
 .text.startup.main
                0x001012c0        0xc All_deRFarm7_At91sam7x512_Rf231_Gcc/Obj/WSNDemoApp.o
                0x001012c0                main
 .text.BSP_OpenTemperatureSensor
                0x001012cc        0x4 All_deRFarm7_At91sam7x512_Rf231_Gcc/Obj/fakeBSP.o
                0x001012cc                BSP_OpenTemperatureSensor
 .text.BSP_CloseTemperatureSensor
                0x001012d0        0x4 All_deRFarm7_At91sam7x512_Rf231_Gcc/Obj/fakeBSP.o
                0x001012d0                BSP_CloseTemperatureSensor
 .text.BSP_ReadTemperatureData
                0x001012d4       0x3c All_deRFarm7_At91sam7x512_Rf231_Gcc/Obj/fakeBSP.o
                0x001012d4                BSP_ReadTemperatureData
 .text.bspTemperatureSensorHandler
                0x00101310       0x1c All_deRFarm7_At91sam7x512_Rf231_Gcc/Obj/fakeBSP.o
                0x00101310                bspTemperatureSensorHandler
 .text.BSP_OpenLightSensor
                0x0010132c        0x4 All_deRFarm7_At91sam7x512_Rf231_Gcc/Obj/fakeBSP.o
                0x0010132c                BSP_OpenLightSensor
 .text.BSP_CloseLightSensor
                0x00101330        0x4 All_deRFarm7_At91sam7x512_Rf231_Gcc/Obj/fakeBSP.o
                0x00101330                BSP_CloseLightSensor
 .text.BSP_ReadLightData
                0x00101334       0x3c All_deRFarm7_At91sam7x512_Rf231_Gcc/Obj/fakeBSP.o
                0x00101334                BSP_ReadLightData
 .text.bspLightSensorHandler
                0x00101370       0x1c All_deRFarm7_At91sam7x512_Rf231_Gcc/Obj/fakeBSP.o
                0x00101370                bspLightSensorHandler
 .text.BSP_OpenBatterySensor
                0x0010138c        0x4 All_deRFarm7_At91sam7x512_Rf231_Gcc/Obj/fakeBSP.o
                0x0010138c                BSP_OpenBatterySensor
 .text.BSP_CloseBatterySensor
                0x00101390        0x4 All_deRFarm7_At91sam7x512_Rf231_Gcc/Obj/fakeBSP.o
                0x00101390                BSP_CloseBatterySensor
 .text.BSP_ReadBatteryData
                0x00101394       0x3c All_deRFarm7_At91sam7x512_Rf231_Gcc/Obj/fakeBSP.o
                0x00101394                BSP_ReadBatteryData
 .text.bspEmptyBatteryHandler
                0x001013d0       0x1c All_deRFarm7_At91sam7x512_Rf231_Gcc/Obj/fakeBSP.o
                0x001013d0                bspEmptyBatteryHandler
 .text.BSP_OpenLeds
                0x001013ec       0x50 All_deRFarm7_At91sam7x512_Rf231_Gcc/Obj/leds.o
                0x001013ec                BSP_OpenLeds
 .text.BSP_OnLed
                0x0010143c       0x44 All_deRFarm7_At91sam7x512_Rf231_Gcc/Obj/leds.o
                0x0010143c                BSP_OnLed
 .text.BSP_OffLed
                0x00101480       0x44 All_deRFarm7_At91sam7x512_Rf231_Gcc/Obj/leds.o
                0x00101480                BSP_OffLed
 .text.BSP_ToggleLed
                0x001014c4       0x50 All_deRFarm7_At91sam7x512_Rf231_Gcc/Obj/leds.o
                0x001014c4                BSP_ToggleLed
 .text.BSP_TaskHandler
                0x00101514       0x7c All_deRFarm7_At91sam7x512_Rf231_Gcc/Obj/bspTaskManager.o
                0x00101514                BSP_TaskHandler
 .text.bspEnableJoystickPIOInterrupt
                0x00101590       0x10 All_deRFarm7_At91sam7x512_Rf231_Gcc/Obj/joystick.o
                0x00101590                bspEnableJoystickPIOInterrupt
 .text.bspJoystickHandler
                0x001015a0       0x38 All_deRFarm7_At91sam7x512_Rf231_Gcc/Obj/joystick.o
                0x001015a0                bspJoystickHandler
 .text.csSetToDefault
                0x001015d8       0x80 All_deRFarm7_At91sam7x512_Rf231_Gcc/Obj/csMem.o
                0x001015d8                csSetToDefault
 .text.csGetItem
                0x00101658       0x28 All_deRFarm7_At91sam7x512_Rf231_Gcc/Obj/configServer.o
 .text.CS_Init  0x00101680        0xc All_deRFarm7_At91sam7x512_Rf231_Gcc/Obj/configServer.o
                0x00101680                CS_Init
 .text.CS_ReadParameter
                0x0010168c       0x22 All_deRFarm7_At91sam7x512_Rf231_Gcc/Obj/configServer.o
                0x0010168c                CS_ReadParameter
 .text.CS_WriteParameter
                0x001016ae       0x2e All_deRFarm7_At91sam7x512_Rf231_Gcc/Obj/configServer.o
                0x001016ae                CS_WriteParameter
 .text.CS_GetMemory
                0x001016dc       0x20 All_deRFarm7_At91sam7x512_Rf231_Gcc/Obj/configServer.o
                0x001016dc                CS_GetMemory
 .text.halStartAtomic
                0x001016fc       0x1c ./../../../../BitCloud/lib/libHAL_deRFarm7_At91sam7x512_48Mhz_Gcc.a(atomic.o)
                0x001016fc                halStartAtomic
 .text.halEndAtomic
                0x00101718       0x28 ./../../../../BitCloud/lib/libHAL_deRFarm7_At91sam7x512_48Mhz_Gcc.a(atomic.o)
                0x00101718                halEndAtomic
 .text.halAppTimerHandler
                0x00101740       0x50 ./../../../../BitCloud/lib/libHAL_deRFarm7_At91sam7x512_48Mhz_Gcc.a(appTimer.o)
                0x00101740                halAppTimerHandler
 .text.HAL_StartAppTimer
                0x00101790       0x44 ./../../../../BitCloud/lib/libHAL_deRFarm7_At91sam7x512_48Mhz_Gcc.a(appTimer.o)
                0x00101790                HAL_StartAppTimer
 .text.HAL_StopAppTimer
                0x001017d4       0x38 ./../../../../BitCloud/lib/libHAL_deRFarm7_At91sam7x512_48Mhz_Gcc.a(appTimer.o)
                0x001017d4                HAL_StopAppTimer
 .text.HAL_GetSystemTime
                0x0010180c       0x14 ./../../../../BitCloud/lib/libHAL_deRFarm7_At91sam7x512_48Mhz_Gcc.a(appTimer.o)
                0x0010180c                HAL_GetSystemTime
 .text.halSigUsartReceptionComplete
                0x00101820       0x50 ./../../../../BitCloud/lib/libHAL_deRFarm7_At91sam7x512_48Mhz_Gcc.a(usart.o)
 .text.halUsartTaskUsart1Rxc
                0x00101870       0x14 ./../../../../BitCloud/lib/libHAL_deRFarm7_At91sam7x512_48Mhz_Gcc.a(usart.o)
 .text.halUsartTaskUsart0Rxc
                0x00101884       0x14 ./../../../../BitCloud/lib/libHAL_deRFarm7_At91sam7x512_48Mhz_Gcc.a(usart.o)
 .text.halUsartHwController
                0x00101898       0xd8 ./../../../../BitCloud/lib/libHAL_deRFarm7_At91sam7x512_48Mhz_Gcc.a(usart.o)
 .text.hwControlPinsPollCallback
                0x00101970       0x14 ./../../../../BitCloud/lib/libHAL_deRFarm7_At91sam7x512_48Mhz_Gcc.a(usart.o)
                0x00101970                hwControlPinsPollCallback
 .text.halUsartTaskUsart1Dre
                0x00101984       0x14 ./../../../../BitCloud/lib/libHAL_deRFarm7_At91sam7x512_48Mhz_Gcc.a(usart.o)
 .text.halUsartTaskUsart0Dre
                0x00101998       0x14 ./../../../../BitCloud/lib/libHAL_deRFarm7_At91sam7x512_48Mhz_Gcc.a(usart.o)
 .text.halSigUsartHandler
                0x001019ac       0x64 ./../../../../BitCloud/lib/libHAL_deRFarm7_At91sam7x512_48Mhz_Gcc.a(usart.o)
                0x001019ac                halSigUsartHandler
 .text.halSigUsartTransmissionComplete
                0x00101a10       0x60 ./../../../../BitCloud/lib/libHAL_deRFarm7_At91sam7x512_48Mhz_Gcc.a(usart.o)
                0x00101a10                halSigUsartTransmissionComplete
 .text.halUsartTaskUsart1Txc
                0x00101a70       0x14 ./../../../../BitCloud/lib/libHAL_deRFarm7_At91sam7x512_48Mhz_Gcc.a(usart.o)
 .text.halUsartTaskUsart0Txc
                0x00101a84       0x14 ./../../../../BitCloud/lib/libHAL_deRFarm7_At91sam7x512_48Mhz_Gcc.a(usart.o)
 .text.halSig2WireSerialHandler
                0x00101a98       0x34 ./../../../../BitCloud/lib/libHAL_deRFarm7_At91sam7x512_48Mhz_Gcc.a(i2cPacket.o)
                0x00101a98                halSig2WireSerialHandler
 .text.halAddTimer
                0x00101acc       0x96 ./../../../../BitCloud/lib/libHAL_deRFarm7_At91sam7x512_48Mhz_Gcc.a(timer.o)
                0x00101acc                halAddTimer
 .text.halRemoveTimer
                0x00101b62       0x20 ./../../../../BitCloud/lib/libHAL_deRFarm7_At91sam7x512_48Mhz_Gcc.a(timer.o)
                0x00101b62                halRemoveTimer
 .text.halFindPrevTimer
                0x00101b82       0x16 ./../../../../BitCloud/lib/libHAL_deRFarm7_At91sam7x512_48Mhz_Gcc.a(timer.o)
                0x00101b82                halFindPrevTimer
 .text.timerHandler
                0x00101b98       0x8c ./../../../../BitCloud/lib/libHAL_deRFarm7_At91sam7x512_48Mhz_Gcc.a(halAppClock.o)
                0x00101b98                timerHandler
 .text.halAppSystemTimeSynchronize
                0x00101c24       0x58 ./../../../../BitCloud/lib/libHAL_deRFarm7_At91sam7x512_48Mhz_Gcc.a(halAppClock.o)
                0x00101c24                halAppSystemTimeSynchronize
 .text.halStartAppClock
                0x00101c7c       0x74 ./../../../../BitCloud/lib/libHAL_deRFarm7_At91sam7x512_48Mhz_Gcc.a(halAppClock.o)
                0x00101c7c                halStartAppClock
 .text.halGetTimeOfAppTimer
                0x00101cf0       0x1c ./../../../../BitCloud/lib/libHAL_deRFarm7_At91sam7x512_48Mhz_Gcc.a(halAppClock.o)
                0x00101cf0                halGetTimeOfAppTimer
 .text.halDelayUs
                0x00101d0c       0x64 ./../../../../BitCloud/lib/libHAL_deRFarm7_At91sam7x512_48Mhz_Gcc.a(halAppClock.o)
                0x00101d0c                halDelayUs
 .text.HAL_InitMacIsr
                0x00101d70       0x20 ./../../../../BitCloud/lib/libHAL_deRFarm7_At91sam7x512_48Mhz_Gcc.a(halMacIsr.o)
                0x00101d70                HAL_InitMacIsr
 .text.HAL_StartRtimer
                0x00101d90       0xa0 ./../../../../BitCloud/lib/libHAL_deRFarm7_At91sam7x512_48Mhz_Gcc.a(halMacIsr.o)
                0x00101d90                HAL_StartRtimer
 .text.HAL_StopRtimer
                0x00101e30       0x20 ./../../../../BitCloud/lib/libHAL_deRFarm7_At91sam7x512_48Mhz_Gcc.a(halMacIsr.o)
                0x00101e30                HAL_StopRtimer
 .text.halMacTimerHandler
                0x00101e50       0x90 ./../../../../BitCloud/lib/libHAL_deRFarm7_At91sam7x512_48Mhz_Gcc.a(halMacIsr.o)
                0x00101e50                halMacTimerHandler
 .text.irqRfHandler
                0x00101ee0       0x10 ./../../../../BitCloud/lib/libHAL_deRFarm7_At91sam7x512_48Mhz_Gcc.a(halMacIsr.o)
                0x00101ee0                irqRfHandler
 .text.HAL_TaskHandler
                0x00101ef0      0x13c ./../../../../BitCloud/lib/libHAL_deRFarm7_At91sam7x512_48Mhz_Gcc.a(halTaskManager.o)
                0x00101ef0                HAL_TaskHandler
 .text.halSigAdcHandler
                0x0010202c       0x20 ./../../../../BitCloud/lib/libHAL_deRFarm7_At91sam7x512_48Mhz_Gcc.a(adc.o)
                0x0010202c                halSigAdcHandler
 .text.spi1Handler
                0x0010204c       0xc8 ./../../../../BitCloud/lib/libHAL_deRFarm7_At91sam7x512_48Mhz_Gcc.a(halSpi.o)
                0x0010204c                spi1Handler
 .text.halInitRfSpi
                0x00102114       0xa0 ./../../../../BitCloud/lib/libHAL_deRFarm7_At91sam7x512_48Mhz_Gcc.a(halSpi.o)
                0x00102114                halInitRfSpi
 .text.HAL_InitRfSpi
                0x001021b4       0x18 ./../../../../BitCloud/lib/libHAL_deRFarm7_At91sam7x512_48Mhz_Gcc.a(halSpi.o)
                0x001021b4                HAL_InitRfSpi
 .text.HAL_WriteByteRfSpi
                0x001021cc       0x20 ./../../../../BitCloud/lib/libHAL_deRFarm7_At91sam7x512_48Mhz_Gcc.a(halSpi.o)
                0x001021cc                HAL_WriteByteRfSpi
 .text.halRfTxCompleteHandler
                0x001021ec       0x24 ./../../../../BitCloud/lib/libHAL_deRFarm7_At91sam7x512_48Mhz_Gcc.a(halSpi.o)
                0x001021ec                halRfTxCompleteHandler
 .text.halRfRxCompleteHandler
                0x00102210       0x24 ./../../../../BitCloud/lib/libHAL_deRFarm7_At91sam7x512_48Mhz_Gcc.a(halSpi.o)
                0x00102210                halRfRxCompleteHandler
 .text.halMemIrqCompleteHandler
                0x00102234       0x2c ./../../../../BitCloud/lib/libHAL_deRFarm7_At91sam7x512_48Mhz_Gcc.a(halSpi.o)
                0x00102234                halMemIrqCompleteHandler
 .text.halDelayBetweenMessages
                0x00102260       0x48 ./../../../../BitCloud/lib/libHAL_deRFarm7_At91sam7x512_48Mhz_Gcc.a(dbgPort.o)
 .text.configure_dbgu
                0x001022a8       0x48 ./../../../../BitCloud/lib/libHAL_deRFarm7_At91sam7x512_48Mhz_Gcc.a(dbgPort.o)
                0x001022a8                configure_dbgu
 .text.dbgu_print_ascii
                0x001022f0       0x30 ./../../../../BitCloud/lib/libHAL_deRFarm7_At91sam7x512_48Mhz_Gcc.a(dbgPort.o)
                0x001022f0                dbgu_print_ascii
 .text.dbgu_print_hex8
                0x00102320       0x5c ./../../../../BitCloud/lib/libHAL_deRFarm7_At91sam7x512_48Mhz_Gcc.a(dbgPort.o)
                0x00102320                dbgu_print_hex8
 .text.parseAbortState
                0x0010237c      0x104 ./../../../../BitCloud/lib/libHAL_deRFarm7_At91sam7x512_48Mhz_Gcc.a(dbgPort.o)
 .text.halSpecRegisterView
                0x00102480       0x6c ./../../../../BitCloud/lib/libHAL_deRFarm7_At91sam7x512_48Mhz_Gcc.a(dbgPort.o)
 .text.halCommRegisterView
                0x001024ec       0x58 ./../../../../BitCloud/lib/libHAL_deRFarm7_At91sam7x512_48Mhz_Gcc.a(dbgPort.o)
 .text.halStackView
                0x00102544       0x6c ./../../../../BitCloud/lib/libHAL_deRFarm7_At91sam7x512_48Mhz_Gcc.a(dbgPort.o)
 .text.custom_pabt_handler
                0x001025b0       0x60 ./../../../../BitCloud/lib/libHAL_deRFarm7_At91sam7x512_48Mhz_Gcc.a(dbgPort.o)
                0x001025b0                custom_pabt_handler
 .text.custom_dabt_handler
                0x00102610       0x60 ./../../../../BitCloud/lib/libHAL_deRFarm7_At91sam7x512_48Mhz_Gcc.a(dbgPort.o)
                0x00102610                custom_dabt_handler
 .text.custom_undf_handler
                0x00102670       0x60 ./../../../../BitCloud/lib/libHAL_deRFarm7_At91sam7x512_48Mhz_Gcc.a(dbgPort.o)
                0x00102670                custom_undf_handler
 .text.default_spurious_handler
                0x001026d0       0x10 ./../../../../BitCloud/lib/libHAL_deRFarm7_At91sam7x512_48Mhz_Gcc.a(dbgPort.o)
                0x001026d0                default_spurious_handler
 .text.default_fiq_handler
                0x001026e0       0x1c ./../../../../BitCloud/lib/libHAL_deRFarm7_At91sam7x512_48Mhz_Gcc.a(dbgPort.o)
                0x001026e0                default_fiq_handler
 .text.default_irq_handler
                0x001026fc       0x44 ./../../../../BitCloud/lib/libHAL_deRFarm7_At91sam7x512_48Mhz_Gcc.a(dbgPort.o)
                0x001026fc                default_irq_handler
 .text.HAL_Delay
                0x00102740       0x10 ./../../../../BitCloud/lib/libHAL_deRFarm7_At91sam7x512_48Mhz_Gcc.a(halRfCtrl.o)
                0x00102740                HAL_Delay
 .text.HAL_ClearRfIrqFlag
                0x00102750       0x10 ./../../../../BitCloud/lib/libHAL_deRFarm7_At91sam7x512_48Mhz_Gcc.a(halRfCtrl.o)
                0x00102750                HAL_ClearRfIrqFlag
 .text.HAL_EnableRfIrq
                0x00102760       0x10 ./../../../../BitCloud/lib/libHAL_deRFarm7_At91sam7x512_48Mhz_Gcc.a(halRfCtrl.o)
                0x00102760                HAL_EnableRfIrq
 .text.HAL_DisableRfIrq
                0x00102770       0x18 ./../../../../BitCloud/lib/libHAL_deRFarm7_At91sam7x512_48Mhz_Gcc.a(halRfCtrl.o)
                0x00102770                HAL_DisableRfIrq
 .text.HAL_SetRfSlpTr
                0x00102788       0x10 ./../../../../BitCloud/lib/libHAL_deRFarm7_At91sam7x512_48Mhz_Gcc.a(halRfCtrl.o)
                0x00102788                HAL_SetRfSlpTr
 .text.HAL_ClearRfSlpTr
                0x00102798       0x10 ./../../../../BitCloud/lib/libHAL_deRFarm7_At91sam7x512_48Mhz_Gcc.a(halRfCtrl.o)
                0x00102798                HAL_ClearRfSlpTr
 .text.HAL_SetRfRst
                0x001027a8       0x10 ./../../../../BitCloud/lib/libHAL_deRFarm7_At91sam7x512_48Mhz_Gcc.a(halRfCtrl.o)
                0x001027a8                HAL_SetRfRst
 .text.HAL_ClearRfRst
                0x001027b8       0x10 ./../../../../BitCloud/lib/libHAL_deRFarm7_At91sam7x512_48Mhz_Gcc.a(halRfCtrl.o)
                0x001027b8                HAL_ClearRfRst
 .text.HAL_DeselectRfSpi
                0x001027c8       0x10 ./../../../../BitCloud/lib/libHAL_deRFarm7_At91sam7x512_48Mhz_Gcc.a(halRfCtrl.o)
                0x001027c8                HAL_DeselectRfSpi
 .text.HAL_SelectRfSpi
                0x001027d8       0x10 ./../../../../BitCloud/lib/libHAL_deRFarm7_At91sam7x512_48Mhz_Gcc.a(halRfCtrl.o)
                0x001027d8                HAL_SelectRfSpi
 .text.HAL_InitRfPins
                0x001027e8       0x28 ./../../../../BitCloud/lib/libHAL_deRFarm7_At91sam7x512_48Mhz_Gcc.a(halRfCtrl.o)
                0x001027e8                HAL_InitRfPins
 .text.HAL_InitRfIrq
                0x00102810       0x38 ./../../../../BitCloud/lib/libHAL_deRFarm7_At91sam7x512_48Mhz_Gcc.a(halRfCtrl.o)
                0x00102810                HAL_InitRfIrq
 .text.HAL_GetRfFreq
                0x00102848        0x8 ./../../../../BitCloud/lib/libHAL_deRFarm7_At91sam7x512_48Mhz_Gcc.a(halRfCtrl.o)
                0x00102848                HAL_GetRfFreq
 .text.HAL_InitRfSpiMode
                0x00102850       0x24 ./../../../../BitCloud/lib/libHAL_deRFarm7_At91sam7x512_48Mhz_Gcc.a(halRfCtrl.o)
                0x00102850                HAL_InitRfSpiMode
 .text.HAL_EnableRxTxSwitcher
                0x00102874        0x4 ./../../../../BitCloud/lib/libHAL_deRFarm7_At91sam7x512_48Mhz_Gcc.a(halRfCtrl.o)
                0x00102874                HAL_EnableRxTxSwitcher
 .text.HAL_InitAntennaDiversity
                0x00102878        0x4 ./../../../../BitCloud/lib/libHAL_deRFarm7_At91sam7x512_48Mhz_Gcc.a(halRfCtrl.o)
                0x00102878                HAL_InitAntennaDiversity
 .text.HAL_EnableRxAntennaDiversity
                0x0010287c        0x4 ./../../../../BitCloud/lib/libHAL_deRFarm7_At91sam7x512_48Mhz_Gcc.a(halRfCtrl.o)
                0x0010287c                HAL_EnableRxAntennaDiversity
 .text.HAL_EnableTxAntennaDiversity
                0x00102880        0x4 ./../../../../BitCloud/lib/libHAL_deRFarm7_At91sam7x512_48Mhz_Gcc.a(halRfCtrl.o)
                0x00102880                HAL_EnableTxAntennaDiversity
 .text.apsNextBind
                0x00102884       0x5c ./../../../../BitCloud/lib/libBc_All_At91sam7x512_Rf231_Gcc.a(aps.o)
 .text.apsPrepareFragmentedTransmission
                0x001028e0       0x88 ./../../../../BitCloud/lib/libBc_All_At91sam7x512_Rf231_Gcc.a(aps.o)
 .text.apsIsFragmentationDataReq
                0x00102968       0x1e ./../../../../BitCloud/lib/libBc_All_At91sam7x512_Rf231_Gcc.a(aps.o)
 *fill*         0x00102986        0x2 
 .text.apsGetBuffer
                0x00102988       0xc8 ./../../../../BitCloud/lib/libBc_All_At91sam7x512_Rf231_Gcc.a(aps.o)
 .text.apsFreeBuffer
                0x00102a50       0x74 ./../../../../BitCloud/lib/libBc_All_At91sam7x512_Rf231_Gcc.a(aps.o)
 .text.apsSendNwkDataReq
                0x00102ac4       0x18 ./../../../../BitCloud/lib/libBc_All_At91sam7x512_Rf231_Gcc.a(aps.o)
 .text.apsProcessShortAddrModeDataReq
                0x00102adc      0x1cc ./../../../../BitCloud/lib/libBc_All_At91sam7x512_Rf231_Gcc.a(aps.o)
 .text.apsSendNextBlock
                0x00102ca8       0x18 ./../../../../BitCloud/lib/libBc_All_At91sam7x512_Rf231_Gcc.a(aps.o)
 .text.apsSendAckForFragmentedReceive
                0x00102cc0       0xe8 ./../../../../BitCloud/lib/libBc_All_At91sam7x512_Rf231_Gcc.a(aps.o)
 .text.apsProcessGroupAddrModeDataReq
                0x00102da8      0x10c ./../../../../BitCloud/lib/libBc_All_At91sam7x512_Rf231_Gcc.a(aps.o)
 .text.apsSendToNextBoundDevice
                0x00102eb4       0x6a ./../../../../BitCloud/lib/libBc_All_At91sam7x512_Rf231_Gcc.a(aps.o)
 .text.apsProcessIndirectDataReq
                0x00102f1e       0x22 ./../../../../BitCloud/lib/libBc_All_At91sam7x512_Rf231_Gcc.a(aps.o)
 .text.apsCalculateApsAckTimeout
                0x00102f40       0x20 ./../../../../BitCloud/lib/libBc_All_At91sam7x512_Rf231_Gcc.a(aps.o)
 .text.SYS_GetRandomNumber
                0x00102f60       0x20 ./../../../../BitCloud/lib/libBc_All_At91sam7x512_Rf231_Gcc.a(aps.o)
 .text.apsResetMemoryManager
                0x00102f80       0xc8 ./../../../../BitCloud/lib/libBc_All_At91sam7x512_Rf231_Gcc.a(aps.o)
 .text.apsPostTask
                0x00103048       0x34 ./../../../../BitCloud/lib/libBc_All_At91sam7x512_Rf231_Gcc.a(aps.o)
 .text.apsDataManagerNwkDataConf
                0x0010307c       0x24 ./../../../../BitCloud/lib/libBc_All_At91sam7x512_Rf231_Gcc.a(aps.o)
 .text.apsGroupNwkDataConf
                0x001030a0       0x3c ./../../../../BitCloud/lib/libBc_All_At91sam7x512_Rf231_Gcc.a(aps.o)
 .text.apsProcessEvent
                0x001030dc       0x24 ./../../../../BitCloud/lib/libBc_All_At91sam7x512_Rf231_Gcc.a(aps.o)
 .text.apsAckOnTimerFired
                0x00103100       0xb8 ./../../../../BitCloud/lib/libBc_All_At91sam7x512_Rf231_Gcc.a(aps.o)
 .text.apsFindBindingEntry
                0x001031b8       0x94 ./../../../../BitCloud/lib/libBc_All_At91sam7x512_Rf231_Gcc.a(aps.o)
 .text.apsMakeApsDataConf
                0x0010324c       0x4c ./../../../../BitCloud/lib/libBc_All_At91sam7x512_Rf231_Gcc.a(aps.o)
 .text.apsAckForFragmentedReceiveConfirmHandler
                0x00103298       0x5c ./../../../../BitCloud/lib/libBc_All_At91sam7x512_Rf231_Gcc.a(aps.o)
 .text.apsHandleTransmittedData.constprop.12
                0x001032f4       0x52 ./../../../../BitCloud/lib/libBc_All_At91sam7x512_Rf231_Gcc.a(aps.o)
 *fill*         0x00103346        0x2 
 .text.APS_BindReq
                0x00103348       0x98 ./../../../../BitCloud/lib/libBc_All_At91sam7x512_Rf231_Gcc.a(aps.o)
                0x00103348                APS_BindReq
 .text.APS_UnbindReq
                0x001033e0       0x50 ./../../../../BitCloud/lib/libBc_All_At91sam7x512_Rf231_Gcc.a(aps.o)
                0x001033e0                APS_UnbindReq
 .text.APS_DataReq
                0x00103430       0x1c ./../../../../BitCloud/lib/libBc_All_At91sam7x512_Rf231_Gcc.a(aps.o)
                0x00103430                APS_DataReq
 .text.NWK_DataInd
                0x0010344c       0x1c ./../../../../BitCloud/lib/libBc_All_At91sam7x512_Rf231_Gcc.a(aps.o)
                0x0010344c                NWK_DataInd
 .text.APS_CalculateTimes
                0x00103468       0xec ./../../../../BitCloud/lib/libBc_All_At91sam7x512_Rf231_Gcc.a(aps.o)
                0x00103468                APS_CalculateTimes
 .text.apsResetDataManager
                0x00103554       0xc0 ./../../../../BitCloud/lib/libBc_All_At91sam7x512_Rf231_Gcc.a(aps.o)
 .text.apsNwkResetConf
                0x00103614      0x14c ./../../../../BitCloud/lib/libBc_All_At91sam7x512_Rf231_Gcc.a(aps.o)
 .text.apsStateMachineTaskHandler
                0x00103760       0xdc ./../../../../BitCloud/lib/libBc_All_At91sam7x512_Rf231_Gcc.a(aps.o)
 .text.APS_IsProfileIdMatched
                0x0010383c       0x20 ./../../../../BitCloud/lib/libBc_All_At91sam7x512_Rf231_Gcc.a(aps.o)
                0x0010383c                APS_IsProfileIdMatched
 .text.APS_NextEndpoint
                0x0010385c       0x18 ./../../../../BitCloud/lib/libBc_All_At91sam7x512_Rf231_Gcc.a(aps.o)
                0x0010385c                APS_NextEndpoint
 .text.apsFindEndpoint
                0x00103874       0x1e ./../../../../BitCloud/lib/libBc_All_At91sam7x512_Rf231_Gcc.a(aps.o)
 *fill*         0x00103892        0x2 
 .text.APS_RegisterEndpointReq
                0x00103894       0x44 ./../../../../BitCloud/lib/libBc_All_At91sam7x512_Rf231_Gcc.a(aps.o)
                0x00103894                APS_RegisterEndpointReq
 .text.apsGroupIndication
                0x001038d8       0x68 ./../../../../BitCloud/lib/libBc_All_At91sam7x512_Rf231_Gcc.a(aps.o)
 .text.apsUnicastDataInd
                0x00103940      0x1e8 ./../../../../BitCloud/lib/libBc_All_At91sam7x512_Rf231_Gcc.a(aps.o)
 .text.apsApduUnicastHandler.constprop.10
                0x00103b28      0x4ac ./../../../../BitCloud/lib/libBc_All_At91sam7x512_Rf231_Gcc.a(aps.o)
 .text.apsDataTaskHandler
                0x00103fd4      0x8d0 ./../../../../BitCloud/lib/libBc_All_At91sam7x512_Rf231_Gcc.a(aps.o)
 .text.APS_Init
                0x001048a4       0x30 ./../../../../BitCloud/lib/libBc_All_At91sam7x512_Rf231_Gcc.a(aps.o)
                0x001048a4                APS_Init
 .text.APS_ResetReq
                0x001048d4       0x10 ./../../../../BitCloud/lib/libBc_All_At91sam7x512_Rf231_Gcc.a(aps.o)
                0x001048d4                APS_ResetReq
 .text.APS_StartReq
                0x001048e4       0x10 ./../../../../BitCloud/lib/libBc_All_At91sam7x512_Rf231_Gcc.a(aps.o)
                0x001048e4                APS_StartReq
 .text.APS_StopReq
                0x001048f4       0x10 ./../../../../BitCloud/lib/libBc_All_At91sam7x512_Rf231_Gcc.a(aps.o)
                0x001048f4                APS_StopReq
 .text.APS_IsActiveTransaction
                0x00104904       0x54 ./../../../../BitCloud/lib/libBc_All_At91sam7x512_Rf231_Gcc.a(aps.o)
                0x00104904                APS_IsActiveTransaction
 .text.APS_TaskHandler
                0x00104958       0x8c ./../../../../BitCloud/lib/libBc_All_At91sam7x512_Rf231_Gcc.a(aps.o)
                0x00104958                APS_TaskHandler
 .text.SYS_GetRandomNumber
                0x001049e4       0x20 ./../../../../BitCloud/lib/libBc_All_At91sam7x512_Rf231_Gcc.a(macenvPib.o)
 .text.getSymbolsPerOctet
                0x00104a04       0x48 ./../../../../BitCloud/lib/libBc_All_At91sam7x512_Rf231_Gcc.a(macenvPib.o)
 .text.calculateMaxFrameDuration
                0x00104a4c       0x1c ./../../../../BitCloud/lib/libBc_All_At91sam7x512_Rf231_Gcc.a(macenvPib.o)
 .text.storeTransmitPower
                0x00104a68       0x70 ./../../../../BitCloud/lib/libBc_All_At91sam7x512_Rf231_Gcc.a(macenvPib.o)
 .text.macenvGetPhySymbolDuration
                0x00104ad8       0x54 ./../../../../BitCloud/lib/libBc_All_At91sam7x512_Rf231_Gcc.a(macenvPib.o)
                0x00104ad8                macenvGetPhySymbolDuration
 .text.updateMaxFrameTxTime
                0x00104b2c       0x28 ./../../../../BitCloud/lib/libBc_All_At91sam7x512_Rf231_Gcc.a(macenvPib.o)
 .text.macenvResetPib
                0x00104b54       0xc0 ./../../../../BitCloud/lib/libBc_All_At91sam7x512_Rf231_Gcc.a(macenvPib.o)
                0x00104b54                macenvResetPib
 .text.macenvConvertTransPersistTimeFromUnitsToMs
                0x00104c14       0x1e ./../../../../BitCloud/lib/libBc_All_At91sam7x512_Rf231_Gcc.a(macenvPib.o)
                0x00104c14                macenvConvertTransPersistTimeFromUnitsToMs
 *fill*         0x00104c32        0x2 
 .text.macenvSetPibAttr
                0x00104c34      0x1c0 ./../../../../BitCloud/lib/libBc_All_At91sam7x512_Rf231_Gcc.a(macenvPib.o)
                0x00104c34                macenvSetPibAttr
 .text.macenvCalculateMaxFrameTotalWaitTimeInMs
                0x00104df4       0x74 ./../../../../BitCloud/lib/libBc_All_At91sam7x512_Rf231_Gcc.a(macenvPib.o)
                0x00104df4                macenvCalculateMaxFrameTotalWaitTimeInMs
 .text.macenvCalculateResponceWaitTimeInMs
                0x00104e68       0x28 ./../../../../BitCloud/lib/libBc_All_At91sam7x512_Rf231_Gcc.a(macenvPib.o)
                0x00104e68                macenvCalculateResponceWaitTimeInMs
 .text.macenvGetPibAttr
                0x00104e90      0x180 ./../../../../BitCloud/lib/libBc_All_At91sam7x512_Rf231_Gcc.a(macenvPib.o)
                0x00104e90                macenvGetPibAttr
 .text.MAC_GetExtAddr
                0x00105010        0x8 ./../../../../BitCloud/lib/libBc_All_At91sam7x512_Rf231_Gcc.a(macenvPib.o)
                0x00105010                MAC_GetExtAddr
 .text.MAC_SetExtAddr
                0x00105018       0x10 ./../../../../BitCloud/lib/libBc_All_At91sam7x512_Rf231_Gcc.a(macenvPib.o)
                0x00105018                MAC_SetExtAddr
 .text.MAC_IsOwnExtAddr
                0x00105028       0x1c ./../../../../BitCloud/lib/libBc_All_At91sam7x512_Rf231_Gcc.a(macenvPib.o)
                0x00105028                MAC_IsOwnExtAddr
 .text.MAC_GetOctetsTransmissionTimeInMs
                0x00105044       0x20 ./../../../../BitCloud/lib/libBc_All_At91sam7x512_Rf231_Gcc.a(macenvPib.o)
                0x00105044                MAC_GetOctetsTransmissionTimeInMs
 .text.nwkAddressConflictIsIdle
                0x00105064       0x14 ./../../../../BitCloud/lib/libBc_All_At91sam7x512_Rf231_Gcc.a(nwk.o)
 .text.nwkFindAddressMapEntryByExtAddr
                0x00105078       0x38 ./../../../../BitCloud/lib/libBc_All_At91sam7x512_Rf231_Gcc.a(nwk.o)
 .text.nwkAddToAddressMap
                0x001050b0       0x60 ./../../../../BitCloud/lib/libBc_All_At91sam7x512_Rf231_Gcc.a(nwk.o)
 .text.nwkFindAddressMapEntryByShortAddr
                0x00105110       0x30 ./../../../../BitCloud/lib/libBc_All_At91sam7x512_Rf231_Gcc.a(nwk.o)
 .text.nwkDataReqIsIdle
                0x00105140       0x14 ./../../../../BitCloud/lib/libBc_All_At91sam7x512_Rf231_Gcc.a(nwk.o)
 .text.nwkDiscoveryIsIdle
                0x00105154       0x14 ./../../../../BitCloud/lib/libBc_All_At91sam7x512_Rf231_Gcc.a(nwk.o)
 .text.nwkEDScanIsIdle
                0x00105168       0x14 ./../../../../BitCloud/lib/libBc_All_At91sam7x512_Rf231_Gcc.a(nwk.o)
 .text.nwkFormationIsIdle
                0x0010517c       0x14 ./../../../../BitCloud/lib/libBc_All_At91sam7x512_Rf231_Gcc.a(nwk.o)
 .text.nwkParseHeader
                0x00105190       0x6a ./../../../../BitCloud/lib/libBc_All_At91sam7x512_Rf231_Gcc.a(nwk.o)
 *fill*         0x001051fa        0x2 
 .text.nwkSetDepth
                0x001051fc       0x18 ./../../../../BitCloud/lib/libBc_All_At91sam7x512_Rf231_Gcc.a(nwk.o)
 .text.findFreeJoinIndObjFor
                0x00105214       0x58 ./../../../../BitCloud/lib/libBc_All_At91sam7x512_Rf231_Gcc.a(nwk.o)
 .text.nwkJoinIndIsIdle
                0x0010526c       0x34 ./../../../../BitCloud/lib/libBc_All_At91sam7x512_Rf231_Gcc.a(nwk.o)
 .text.nwkJoinReqIsIdle
                0x001052a0       0x14 ./../../../../BitCloud/lib/libBc_All_At91sam7x512_Rf231_Gcc.a(nwk.o)
 .text.nwkLeaveReqIsIdle
                0x001052b4       0x14 ./../../../../BitCloud/lib/libBc_All_At91sam7x512_Rf231_Gcc.a(nwk.o)
 .text.nwkLinkStatusIsIdle
                0x001052c8       0x14 ./../../../../BitCloud/lib/libBc_All_At91sam7x512_Rf231_Gcc.a(nwk.o)
 .text.nwkLoopbackIsIdle
                0x001052dc       0x14 ./../../../../BitCloud/lib/libBc_All_At91sam7x512_Rf231_Gcc.a(nwk.o)
 .text.nwkGetOutgoingCost
                0x001052f0       0x2c ./../../../../BitCloud/lib/libBc_All_At91sam7x512_Rf231_Gcc.a(nwk.o)
 .text.nwkClearNeighborTable
                0x0010531c       0x78 ./../../../../BitCloud/lib/libBc_All_At91sam7x512_Rf231_Gcc.a(nwk.o)
 .text.nwkUpdateCapacityBits
                0x00105394       0x84 ./../../../../BitCloud/lib/libBc_All_At91sam7x512_Rf231_Gcc.a(nwk.o)
 .text.nwkUpdateCapacityBitsInBeacon
                0x00105418       0x48 ./../../../../BitCloud/lib/libBc_All_At91sam7x512_Rf231_Gcc.a(nwk.o)
 .text.nwkUpdateBeaconPayload
                0x00105460       0x98 ./../../../../BitCloud/lib/libBc_All_At91sam7x512_Rf231_Gcc.a(nwk.o)
 .text.nwkFreeNeighbor
                0x001054f8       0x34 ./../../../../BitCloud/lib/libBc_All_At91sam7x512_Rf231_Gcc.a(nwk.o)
 .text.nwkCostFromLqi
                0x0010552c       0x34 ./../../../../BitCloud/lib/libBc_All_At91sam7x512_Rf231_Gcc.a(nwk.o)
 .text.nwkInitLqiAndCostOfNeighbor
                0x00105560       0x40 ./../../../../BitCloud/lib/libBc_All_At91sam7x512_Rf231_Gcc.a(nwk.o)
 .text.nwkUpdateLqiAndCostOfNeighbor
                0x001055a0       0x50 ./../../../../BitCloud/lib/libBc_All_At91sam7x512_Rf231_Gcc.a(nwk.o)
 .text.nwkFindPassiveAck
                0x001055f0       0x44 ./../../../../BitCloud/lib/libBc_All_At91sam7x512_Rf231_Gcc.a(nwk.o)
 .text.nwkNewPassiveAck
                0x00105634       0xb8 ./../../../../BitCloud/lib/libBc_All_At91sam7x512_Rf231_Gcc.a(nwk.o)
 .text.nwkFreePassiveAck
                0x001056ec       0x38 ./../../../../BitCloud/lib/libBc_All_At91sam7x512_Rf231_Gcc.a(nwk.o)
 .text.nwkPermitJoiningIsIdle
                0x00105724       0x20 ./../../../../BitCloud/lib/libBc_All_At91sam7x512_Rf231_Gcc.a(nwk.o)
 .text.nwkResetIsIdle
                0x00105744       0x10 ./../../../../BitCloud/lib/libBc_All_At91sam7x512_Rf231_Gcc.a(nwk.o)
 .text.nwkRouteDiscoveryIsIdle
                0x00105754       0x14 ./../../../../BitCloud/lib/libBc_All_At91sam7x512_Rf231_Gcc.a(nwk.o)
 .text.nwkFindRouteDiscoveryEntry
                0x00105768       0x38 ./../../../../BitCloud/lib/libBc_All_At91sam7x512_Rf231_Gcc.a(nwk.o)
 .text.nwkFreeRouteDiscoveryEntry
                0x001057a0       0x30 ./../../../../BitCloud/lib/libBc_All_At91sam7x512_Rf231_Gcc.a(nwk.o)
 .text.nwkConfirmRouteRequestTx
                0x001057d0       0x42 ./../../../../BitCloud/lib/libBc_All_At91sam7x512_Rf231_Gcc.a(nwk.o)
 *fill*         0x00105812        0x2 
 .text.nwkRouteDiscoveryTableIsIdle
                0x00105814       0x14 ./../../../../BitCloud/lib/libBc_All_At91sam7x512_Rf231_Gcc.a(nwk.o)
 .text.nwkDeleteNextHop
                0x00105828       0x38 ./../../../../BitCloud/lib/libBc_All_At91sam7x512_Rf231_Gcc.a(nwk.o)
 .text.nwkFindRoutingEntry
                0x00105860       0x3c ./../../../../BitCloud/lib/libBc_All_At91sam7x512_Rf231_Gcc.a(nwk.o)
 .text.nwkFreeRoutingEntry
                0x0010589c       0x18 ./../../../../BitCloud/lib/libBc_All_At91sam7x512_Rf231_Gcc.a(nwk.o)
 .text.nwkUpdateNextHop
                0x001058b4       0x94 ./../../../../BitCloud/lib/libBc_All_At91sam7x512_Rf231_Gcc.a(nwk.o)
 .text.nwkStartRouterIsIdle
                0x00105948       0x14 ./../../../../BitCloud/lib/libBc_All_At91sam7x512_Rf231_Gcc.a(nwk.o)
 .text.nwkSendRouteErrorConf
                0x0010595c       0x10 ./../../../../BitCloud/lib/libBc_All_At91sam7x512_Rf231_Gcc.a(nwk.o)
 .text.nwkSyncIsIdle
                0x0010596c       0x14 ./../../../../BitCloud/lib/libBc_All_At91sam7x512_Rf231_Gcc.a(nwk.o)
 .text.nwkTxDelayIsIdle
                0x00105980       0x10 ./../../../../BitCloud/lib/libBc_All_At91sam7x512_Rf231_Gcc.a(nwk.o)
 .text.nwkReloadNibFromConfigServer
                0x00105990       0x64 ./../../../../BitCloud/lib/libBc_All_At91sam7x512_Rf231_Gcc.a(nwk.o)
 .text.nwkSetLifeTimeOfNeighbor
                0x001059f4       0x78 ./../../../../BitCloud/lib/libBc_All_At91sam7x512_Rf231_Gcc.a(nwk.o)
 .text.nwkLinkStatusInd
                0x00105a6c      0x21c ./../../../../BitCloud/lib/libBc_All_At91sam7x512_Rf231_Gcc.a(nwk.o)
 .text.nwkAllocPacket
                0x00105c88       0xa0 ./../../../../BitCloud/lib/libBc_All_At91sam7x512_Rf231_Gcc.a(nwk.o)
 .text.nwkAllocInputPacket
                0x00105d28       0x26 ./../../../../BitCloud/lib/libBc_All_At91sam7x512_Rf231_Gcc.a(nwk.o)
 .text.SYS_GetRandomNumber
                0x00105d4e       0x20 ./../../../../BitCloud/lib/libBc_All_At91sam7x512_Rf231_Gcc.a(nwk.o)
 *fill*         0x00105d6e        0x2 
 .text.nwkFindDeviceToJoin
                0x00105d70       0xec ./../../../../BitCloud/lib/libBc_All_At91sam7x512_Rf231_Gcc.a(nwk.o)
 .text.nwkStartLinkStatusTimer
                0x00105e5c       0x20 ./../../../../BitCloud/lib/libBc_All_At91sam7x512_Rf231_Gcc.a(nwk.o)
 .text.nwkConfirmLinkStatusTx
                0x00105e7c       0x20 ./../../../../BitCloud/lib/libBc_All_At91sam7x512_Rf231_Gcc.a(nwk.o)
 .text.nwkStartAgeTimerOfNeighborTable
                0x00105e9c       0x34 ./../../../../BitCloud/lib/libBc_All_At91sam7x512_Rf231_Gcc.a(nwk.o)
 .text.freeJoinIndObj
                0x00105ed0       0x10 ./../../../../BitCloud/lib/libBc_All_At91sam7x512_Rf231_Gcc.a(nwk.o)
 .text.nwkJoinIndTaskHandler
                0x00105ee0       0xbc ./../../../../BitCloud/lib/libBc_All_At91sam7x512_Rf231_Gcc.a(nwk.o)
 .text.nwkPrepareCommonFrame
                0x00105f9c       0x54 ./../../../../BitCloud/lib/libBc_All_At91sam7x512_Rf231_Gcc.a(nwk.o)
 .text.nwkAllocRouteDiscoveryEntry
                0x00105ff0       0x84 ./../../../../BitCloud/lib/libBc_All_At91sam7x512_Rf231_Gcc.a(nwk.o)
 .text.nwkPrepareLeaveChildTx
                0x00106074       0xd0 ./../../../../BitCloud/lib/libBc_All_At91sam7x512_Rf231_Gcc.a(nwk.o)
 .text.nwkPrepareLeaveItselfTx
                0x00106144       0xa0 ./../../../../BitCloud/lib/libBc_All_At91sam7x512_Rf231_Gcc.a(nwk.o)
 .text.nwkPrepareJoinRespTx
                0x001061e4       0xf4 ./../../../../BitCloud/lib/libBc_All_At91sam7x512_Rf231_Gcc.a(nwk.o)
 .text.nwkPrepareJoinReqTx
                0x001062d8       0x8c ./../../../../BitCloud/lib/libBc_All_At91sam7x512_Rf231_Gcc.a(nwk.o)
 .text.nwkPrepareLinkStatusTx
                0x00106364      0x164 ./../../../../BitCloud/lib/libBc_All_At91sam7x512_Rf231_Gcc.a(nwk.o)
 .text.nwkPermitJoinTimerFired
                0x001064c8       0x3c ./../../../../BitCloud/lib/libBc_All_At91sam7x512_Rf231_Gcc.a(nwk.o)
 .text.nwkResetRouteDiscoveryTable
                0x00106504       0x78 ./../../../../BitCloud/lib/libBc_All_At91sam7x512_Rf231_Gcc.a(nwk.o)
 .text.nwkPostTask
                0x0010657c       0x34 ./../../../../BitCloud/lib/libBc_All_At91sam7x512_Rf231_Gcc.a(nwk.o)
 .text.nwkEDScanMacEDScanConf
                0x001065b0       0x3c ./../../../../BitCloud/lib/libBc_All_At91sam7x512_Rf231_Gcc.a(nwk.o)
 .text.nwkFormationMacRxEnableConf
                0x001065ec       0x28 ./../../../../BitCloud/lib/libBc_All_At91sam7x512_Rf231_Gcc.a(nwk.o)
 .text.nwkDiscoveryMacActiveScanConf
                0x00106614       0x2c ./../../../../BitCloud/lib/libBc_All_At91sam7x512_Rf231_Gcc.a(nwk.o)
 .text.nwkPermitJoiningMacSetConf
                0x00106640       0x3c ./../../../../BitCloud/lib/libBc_All_At91sam7x512_Rf231_Gcc.a(nwk.o)
 .text.nwkStartRouterMacStartConf
                0x0010667c       0x28 ./../../../../BitCloud/lib/libBc_All_At91sam7x512_Rf231_Gcc.a(nwk.o)
 .text.NWK_JoinConf
                0x001066a4       0x38 ./../../../../BitCloud/lib/libBc_All_At91sam7x512_Rf231_Gcc.a(nwk.o)
 .text.nwkStatusConf
                0x001066dc       0x1c ./../../../../BitCloud/lib/libBc_All_At91sam7x512_Rf231_Gcc.a(nwk.o)
 .text.nwkRouteDiscoveryTaskHandler
                0x001066f8       0xe0 ./../../../../BitCloud/lib/libBc_All_At91sam7x512_Rf231_Gcc.a(nwk.o)
 .text.nwkFormationMacActiveScanConf
                0x001067d8      0x1d0 ./../../../../BitCloud/lib/libBc_All_At91sam7x512_Rf231_Gcc.a(nwk.o)
 .text.nwkFormationMacStartConf
                0x001069a8       0x4c ./../../../../BitCloud/lib/libBc_All_At91sam7x512_Rf231_Gcc.a(nwk.o)
 .text.nwkFormationTaskHandler
                0x001069f4      0x144 ./../../../../BitCloud/lib/libBc_All_At91sam7x512_Rf231_Gcc.a(nwk.o)
 .text.nwkFormationMacEDScanConf
                0x00106b38       0xa4 ./../../../../BitCloud/lib/libBc_All_At91sam7x512_Rf231_Gcc.a(nwk.o)
 .text.nwkFormationMacSetConf
                0x00106bdc      0x100 ./../../../../BitCloud/lib/libBc_All_At91sam7x512_Rf231_Gcc.a(nwk.o)
 .text.nwkLoopbackTaskHandler
                0x00106cdc       0xdc ./../../../../BitCloud/lib/libBc_All_At91sam7x512_Rf231_Gcc.a(nwk.o)
 .text.nwkBroadcastForMe
                0x00106db8       0x54 ./../../../../BitCloud/lib/libBc_All_At91sam7x512_Rf231_Gcc.a(nwk.o)
 .text.nwkIsJoiningForbidden
                0x00106e0c       0x6c ./../../../../BitCloud/lib/libBc_All_At91sam7x512_Rf231_Gcc.a(nwk.o)
 .text.nwkIsPassiveAckDone.isra.4
                0x00106e78       0x40 ./../../../../BitCloud/lib/libBc_All_At91sam7x512_Rf231_Gcc.a(nwk.o)
 .text.nwkTxDelayReq
                0x00106eb8      0x1d0 ./../../../../BitCloud/lib/libBc_All_At91sam7x512_Rf231_Gcc.a(nwk.o)
 .text.nwkEDScanTaskHandler
                0x00107088       0xa8 ./../../../../BitCloud/lib/libBc_All_At91sam7x512_Rf231_Gcc.a(nwk.o)
 .text.nwkDiscoveryTaskHandler
                0x00107130       0xb4 ./../../../../BitCloud/lib/libBc_All_At91sam7x512_Rf231_Gcc.a(nwk.o)
 .text.nwkDataConf
                0x001071e4       0x38 ./../../../../BitCloud/lib/libBc_All_At91sam7x512_Rf231_Gcc.a(nwk.o)
 .text.nwkConfirmDataTx
                0x0010721c       0x22 ./../../../../BitCloud/lib/libBc_All_At91sam7x512_Rf231_Gcc.a(nwk.o)
 *fill*         0x0010723e        0x2 
 .text.nwkRouteDiscoveryTableTimerFired
                0x00107240       0x58 ./../../../../BitCloud/lib/libBc_All_At91sam7x512_Rf231_Gcc.a(nwk.o)
 .text.nwkPermitJoiningTaskHandler
                0x00107298       0xc8 ./../../../../BitCloud/lib/libBc_All_At91sam7x512_Rf231_Gcc.a(nwk.o)
 .text.nwkResetNeighborTable
                0x00107360       0x78 ./../../../../BitCloud/lib/libBc_All_At91sam7x512_Rf231_Gcc.a(nwk.o)
 .text.nwkStartRouterTaskHandler
                0x001073d8       0xe4 ./../../../../BitCloud/lib/libBc_All_At91sam7x512_Rf231_Gcc.a(nwk.o)
 .text.nwkConfirmLeaveItselfTx
                0x001074bc       0x48 ./../../../../BitCloud/lib/libBc_All_At91sam7x512_Rf231_Gcc.a(nwk.o)
 .text.nwkResetTaskHandler
                0x00107504       0x5c ./../../../../BitCloud/lib/libBc_All_At91sam7x512_Rf231_Gcc.a(nwk.o)
 .text.nwkSyncTaskHandler
                0x00107560       0xc0 ./../../../../BitCloud/lib/libBc_All_At91sam7x512_Rf231_Gcc.a(nwk.o)
 .text.nwkSyncMacPollConf
                0x00107620       0x6c ./../../../../BitCloud/lib/libBc_All_At91sam7x512_Rf231_Gcc.a(nwk.o)
 .text.nwkAssociate
                0x0010768c       0xa0 ./../../../../BitCloud/lib/libBc_All_At91sam7x512_Rf231_Gcc.a(nwk.o)
 .text.MAC_AssociateConf
                0x0010772c       0xe0 ./../../../../BitCloud/lib/libBc_All_At91sam7x512_Rf231_Gcc.a(nwk.o)
 .text.nwkGetSuitableParent
                0x0010780c       0x78 ./../../../../BitCloud/lib/libBc_All_At91sam7x512_Rf231_Gcc.a(nwk.o)
 .text.nwkJoinReqMacSetConf
                0x00107884      0x1b0 ./../../../../BitCloud/lib/libBc_All_At91sam7x512_Rf231_Gcc.a(nwk.o)
 .text.macLatencyFired
                0x00107a34        0xc ./../../../../BitCloud/lib/libBc_All_At91sam7x512_Rf231_Gcc.a(nwk.o)
 .text.nwkConfirmJoinReqTx
                0x00107a40       0x58 ./../../../../BitCloud/lib/libBc_All_At91sam7x512_Rf231_Gcc.a(nwk.o)
 .text.responseWaitTimerFired
                0x00107a98       0x60 ./../../../../BitCloud/lib/libBc_All_At91sam7x512_Rf231_Gcc.a(nwk.o)
 .text.nwkJoinReqMacPollConf
                0x00107af8       0x5c ./../../../../BitCloud/lib/libBc_All_At91sam7x512_Rf231_Gcc.a(nwk.o)
 .text.nwkRejoinResponseFrameInd
                0x00107b54      0x184 ./../../../../BitCloud/lib/libBc_All_At91sam7x512_Rf231_Gcc.a(nwk.o)
 .text.nwkAllocOutputPacket.constprop.55
                0x00107cd8       0x38 ./../../../../BitCloud/lib/libBc_All_At91sam7x512_Rf231_Gcc.a(nwk.o)
 .text.nwkTryToProcessCommandReq
                0x00107d10       0x38 ./../../../../BitCloud/lib/libBc_All_At91sam7x512_Rf231_Gcc.a(nwk.o)
 .text.nwkCommandReq
                0x00107d48       0x20 ./../../../../BitCloud/lib/libBc_All_At91sam7x512_Rf231_Gcc.a(nwk.o)
 .text.nwkConfirmNetworkStatusTx
                0x00107d68       0x60 ./../../../../BitCloud/lib/libBc_All_At91sam7x512_Rf231_Gcc.a(nwk.o)
 .text.nwkLinkStatusTimerFired
                0x00107dc8       0x28 ./../../../../BitCloud/lib/libBc_All_At91sam7x512_Rf231_Gcc.a(nwk.o)
 .text.nwkRejoinCmdPrepareAndSend
                0x00107df0       0x40 ./../../../../BitCloud/lib/libBc_All_At91sam7x512_Rf231_Gcc.a(nwk.o)
 .text.nwkJoinReqMacRxEnableConf
                0x00107e30       0x84 ./../../../../BitCloud/lib/libBc_All_At91sam7x512_Rf231_Gcc.a(nwk.o)
 .text.nwkJoinReqMacGetConf
                0x00107eb4       0x3c ./../../../../BitCloud/lib/libBc_All_At91sam7x512_Rf231_Gcc.a(nwk.o)
 .text.nwkSendAddressConflictNwkStatus.constprop.53
                0x00107ef0       0x78 ./../../../../BitCloud/lib/libBc_All_At91sam7x512_Rf231_Gcc.a(nwk.o)
 .text.nwkAddressConflictMacSetConf
                0x00107f68       0x4c ./../../../../BitCloud/lib/libBc_All_At91sam7x512_Rf231_Gcc.a(nwk.o)
 .text.nwkRemoveAllChildren.constprop.54
                0x00107fb4       0xb0 ./../../../../BitCloud/lib/libBc_All_At91sam7x512_Rf231_Gcc.a(nwk.o)
 .text.nwkFreePacket
                0x00108064       0x5c ./../../../../BitCloud/lib/libBc_All_At91sam7x512_Rf231_Gcc.a(nwk.o)
 .text.nwkSendRouteErrorStatus.constprop.56
                0x001080c0       0x78 ./../../../../BitCloud/lib/libBc_All_At91sam7x512_Rf231_Gcc.a(nwk.o)
 .text.nwkTxConf
                0x00108138      0x184 ./../../../../BitCloud/lib/libBc_All_At91sam7x512_Rf231_Gcc.a(nwk.o)
 .text.nwkProcessDelayStatus
                0x001082bc       0xac ./../../../../BitCloud/lib/libBc_All_At91sam7x512_Rf231_Gcc.a(nwk.o)
 .text.MAC_DataConf
                0x00108368       0x20 ./../../../../BitCloud/lib/libBc_All_At91sam7x512_Rf231_Gcc.a(nwk.o)
 .text.nwkLeaveReqMacResetConf
                0x00108388       0xe0 ./../../../../BitCloud/lib/libBc_All_At91sam7x512_Rf231_Gcc.a(nwk.o)
 .text.nwkTransmitOutputPacket.isra.25
                0x00108468       0x40 ./../../../../BitCloud/lib/libBc_All_At91sam7x512_Rf231_Gcc.a(nwk.o)
 .text.nwkSendDiscoveryCommand
                0x001084a8       0x64 ./../../../../BitCloud/lib/libBc_All_At91sam7x512_Rf231_Gcc.a(nwk.o)
 .text.nwkRouteDiscoveryTableTaskHandler
                0x0010850c       0xa4 ./../../../../BitCloud/lib/libBc_All_At91sam7x512_Rf231_Gcc.a(nwk.o)
 .text.nwkTxDelayTimerFired
                0x001085b0       0x60 ./../../../../BitCloud/lib/libBc_All_At91sam7x512_Rf231_Gcc.a(nwk.o)
 .text.nwkMeshRouteDiscoveryConf
                0x00108610       0x4e ./../../../../BitCloud/lib/libBc_All_At91sam7x512_Rf231_Gcc.a(nwk.o)
 *fill*         0x0010865e        0x2 
 .text.NWK_GetShortAddr
                0x00108660        0xc ./../../../../BitCloud/lib/libBc_All_At91sam7x512_Rf231_Gcc.a(nwk.o)
                0x00108660                NWK_GetShortAddr
 .text.NWK_IsStaticAddressingMode
                0x0010866c        0xc ./../../../../BitCloud/lib/libBc_All_At91sam7x512_Rf231_Gcc.a(nwk.o)
                0x0010866c                NWK_IsStaticAddressingMode
 .text.NWK_RemoveFromAddressMap
                0x00108678       0x18 ./../../../../BitCloud/lib/libBc_All_At91sam7x512_Rf231_Gcc.a(nwk.o)
                0x00108678                NWK_RemoveFromAddressMap
 .text.NWK_NetworkDiscoveryReq
                0x00108690       0x28 ./../../../../BitCloud/lib/libBc_All_At91sam7x512_Rf231_Gcc.a(nwk.o)
                0x00108690                NWK_NetworkDiscoveryReq
 .text.MAC_BeaconNotifyInd
                0x001086b8      0x3f8 ./../../../../BitCloud/lib/libBc_All_At91sam7x512_Rf231_Gcc.a(nwk.o)
                0x001086b8                MAC_BeaconNotifyInd
 .text.NWK_EDScanReq
                0x00108ab0       0x28 ./../../../../BitCloud/lib/libBc_All_At91sam7x512_Rf231_Gcc.a(nwk.o)
                0x00108ab0                NWK_EDScanReq
 .text.NWK_NetworkFormationReq
                0x00108ad8       0x30 ./../../../../BitCloud/lib/libBc_All_At91sam7x512_Rf231_Gcc.a(nwk.o)
                0x00108ad8                NWK_NetworkFormationReq
 .text.NWK_IsGroupMember
                0x00108b08       0x3c ./../../../../BitCloud/lib/libBc_All_At91sam7x512_Rf231_Gcc.a(nwk.o)
                0x00108b08                NWK_IsGroupMember
 .text.nwkRetransmitInputPacket
                0x00108b44       0xf0 ./../../../../BitCloud/lib/libBc_All_At91sam7x512_Rf231_Gcc.a(nwk.o)
 .text.NWK_DataResp
                0x00108c34       0x20 ./../../../../BitCloud/lib/libBc_All_At91sam7x512_Rf231_Gcc.a(nwk.o)
                0x00108c34                NWK_DataResp
 .text.unlikely.nwkRxIndication
                0x00108c54      0x20c ./../../../../BitCloud/lib/libBc_All_At91sam7x512_Rf231_Gcc.a(nwk.o)
 .text.unlikely.nwkRxRetransmit
                0x00108e60       0xc8 ./../../../../BitCloud/lib/libBc_All_At91sam7x512_Rf231_Gcc.a(nwk.o)
 .text.NWK_ResetGroups
                0x00108f28       0x3c ./../../../../BitCloud/lib/libBc_All_At91sam7x512_Rf231_Gcc.a(nwk.o)
                0x00108f28                NWK_ResetGroups
 .text.nwkResetMacResetConf
                0x00108f64      0x3a0 ./../../../../BitCloud/lib/libBc_All_At91sam7x512_Rf231_Gcc.a(nwk.o)
 .text.NWK_GetParentShortAddr
                0x00109304        0xc ./../../../../BitCloud/lib/libBc_All_At91sam7x512_Rf231_Gcc.a(nwk.o)
                0x00109304                NWK_GetParentShortAddr
 .text.NWK_GetPanId
                0x00109310        0xc ./../../../../BitCloud/lib/libBc_All_At91sam7x512_Rf231_Gcc.a(nwk.o)
                0x00109310                NWK_GetPanId
 .text.NWK_GetExtPanId
                0x0010931c        0xc ./../../../../BitCloud/lib/libBc_All_At91sam7x512_Rf231_Gcc.a(nwk.o)
                0x0010931c                NWK_GetExtPanId
 .text.NWK_GetDeviceType
                0x00109328        0xc ./../../../../BitCloud/lib/libBc_All_At91sam7x512_Rf231_Gcc.a(nwk.o)
                0x00109328                NWK_GetDeviceType
 .text.NWK_GetLogicalChannel
                0x00109334        0xc ./../../../../BitCloud/lib/libBc_All_At91sam7x512_Rf231_Gcc.a(nwk.o)
                0x00109334                NWK_GetLogicalChannel
 .text.NWK_SetLogicalChannel
                0x00109340        0xc ./../../../../BitCloud/lib/libBc_All_At91sam7x512_Rf231_Gcc.a(nwk.o)
                0x00109340                NWK_SetLogicalChannel
 .text.NWK_GetBroadcastDeliveryTime
                0x0010934c        0xc ./../../../../BitCloud/lib/libBc_All_At91sam7x512_Rf231_Gcc.a(nwk.o)
                0x0010934c                NWK_GetBroadcastDeliveryTime
 .text.NWK_GetManagerAddr
                0x00109358        0xc ./../../../../BitCloud/lib/libBc_All_At91sam7x512_Rf231_Gcc.a(nwk.o)
                0x00109358                NWK_GetManagerAddr
 .text.NWK_SetManagerAddr
                0x00109364        0xc ./../../../../BitCloud/lib/libBc_All_At91sam7x512_Rf231_Gcc.a(nwk.o)
                0x00109364                NWK_SetManagerAddr
 .text.NWK_SetUpdateId
                0x00109370       0x14 ./../../../../BitCloud/lib/libBc_All_At91sam7x512_Rf231_Gcc.a(nwk.o)
                0x00109370                NWK_SetUpdateId
 .text.NWK_GetTransmitCouner
                0x00109384        0xc ./../../../../BitCloud/lib/libBc_All_At91sam7x512_Rf231_Gcc.a(nwk.o)
                0x00109384                NWK_GetTransmitCouner
 .text.NWK_GetTransmitFailureCounter
                0x00109390        0xc ./../../../../BitCloud/lib/libBc_All_At91sam7x512_Rf231_Gcc.a(nwk.o)
                0x00109390                NWK_GetTransmitFailureCounter
 .text.NWK_ResetTransmitCounters
                0x0010939c       0x10 ./../../../../BitCloud/lib/libBc_All_At91sam7x512_Rf231_Gcc.a(nwk.o)
                0x0010939c                NWK_ResetTransmitCounters
 .text.NWK_JoinReq
                0x001093ac       0x30 ./../../../../BitCloud/lib/libBc_All_At91sam7x512_Rf231_Gcc.a(nwk.o)
                0x001093ac                NWK_JoinReq
 .text.NWK_RemoveNeighbor
                0x001093dc       0x50 ./../../../../BitCloud/lib/libBc_All_At91sam7x512_Rf231_Gcc.a(nwk.o)
                0x001093dc                NWK_RemoveNeighbor
 .text.neighborTimerFired
                0x0010942c       0x58 ./../../../../BitCloud/lib/libBc_All_At91sam7x512_Rf231_Gcc.a(nwk.o)
 .text.NWK_LeaveReq
                0x00109484       0x28 ./../../../../BitCloud/lib/libBc_All_At91sam7x512_Rf231_Gcc.a(nwk.o)
                0x00109484                NWK_LeaveReq
 .text.NWK_LoopbackTxReq
                0x001094ac       0x30 ./../../../../BitCloud/lib/libBc_All_At91sam7x512_Rf231_Gcc.a(nwk.o)
                0x001094ac                NWK_LoopbackTxReq
 .text.nwkDataConfTaskHandler
                0x001094dc       0x58 ./../../../../BitCloud/lib/libBc_All_At91sam7x512_Rf231_Gcc.a(nwk.o)
 .text.NWK_DataReq
                0x00109534      0x1dc ./../../../../BitCloud/lib/libBc_All_At91sam7x512_Rf231_Gcc.a(nwk.o)
                0x00109534                NWK_DataReq
 .text.NWK_FindNeighborByShortAddr
                0x00109710       0x2c ./../../../../BitCloud/lib/libBc_All_At91sam7x512_Rf231_Gcc.a(nwk.o)
                0x00109710                NWK_FindNeighborByShortAddr
 .text.nwkAllocNonConflAddr
                0x0010973c       0xb0 ./../../../../BitCloud/lib/libBc_All_At91sam7x512_Rf231_Gcc.a(nwk.o)
 .text.NWK_NetworkDiscoveryConf
                0x001097ec       0xa4 ./../../../../BitCloud/lib/libBc_All_At91sam7x512_Rf231_Gcc.a(nwk.o)
 .text.nwkJoinReqTaskHandler
                0x00109890      0x164 ./../../../../BitCloud/lib/libBc_All_At91sam7x512_Rf231_Gcc.a(nwk.o)
 .text.nwkAllocateShortAddr.isra.45
                0x001099f4       0x40 ./../../../../BitCloud/lib/libBc_All_At91sam7x512_Rf231_Gcc.a(nwk.o)
 .text.nwkResolveAddressConflict
                0x00109a34      0x17c ./../../../../BitCloud/lib/libBc_All_At91sam7x512_Rf231_Gcc.a(nwk.o)
 .text.nwkAddressConflictTaskHandler
                0x00109bb0       0x94 ./../../../../BitCloud/lib/libBc_All_At91sam7x512_Rf231_Gcc.a(nwk.o)
 .text.nwkStatusFrameInd
                0x00109c44       0x50 ./../../../../BitCloud/lib/libBc_All_At91sam7x512_Rf231_Gcc.a(nwk.o)
 .text.nwkAddChild
                0x00109c94      0x25c ./../../../../BitCloud/lib/libBc_All_At91sam7x512_Rf231_Gcc.a(nwk.o)
 .text.nwkRejoinRequestFrameInd
                0x00109ef0      0x114 ./../../../../BitCloud/lib/libBc_All_At91sam7x512_Rf231_Gcc.a(nwk.o)
 .text.MAC_AssociateInd
                0x0010a004       0x98 ./../../../../BitCloud/lib/libBc_All_At91sam7x512_Rf231_Gcc.a(nwk.o)
                0x0010a004                MAC_AssociateInd
 .text.nwkGetNextHop
                0x0010a09c      0x1c4 ./../../../../BitCloud/lib/libBc_All_At91sam7x512_Rf231_Gcc.a(nwk.o)
 .text.nwkProcessRouteRequest
                0x0010a260      0x1a4 ./../../../../BitCloud/lib/libBc_All_At91sam7x512_Rf231_Gcc.a(nwk.o)
 .text.NWK_GetExtByShortAddress
                0x0010a404       0x3c ./../../../../BitCloud/lib/libBc_All_At91sam7x512_Rf231_Gcc.a(nwk.o)
                0x0010a404                NWK_GetExtByShortAddress
 .text.nwkPrepareRouteRequestTx
                0x0010a440      0x116 ./../../../../BitCloud/lib/libBc_All_At91sam7x512_Rf231_Gcc.a(nwk.o)
 *fill*         0x0010a556        0x2 
 .text.nwkPrepareNetworkStatusTx
                0x0010a558      0x120 ./../../../../BitCloud/lib/libBc_All_At91sam7x512_Rf231_Gcc.a(nwk.o)
 .text.nwkPrepareRouteReplyTx
                0x0010a678      0x220 ./../../../../BitCloud/lib/libBc_All_At91sam7x512_Rf231_Gcc.a(nwk.o)
 .text.NWK_FindNeighborByExtAddr
                0x0010a898       0x34 ./../../../../BitCloud/lib/libBc_All_At91sam7x512_Rf231_Gcc.a(nwk.o)
                0x0010a898                NWK_FindNeighborByExtAddr
 .text.nwkLeaveTaskHandler
                0x0010a8cc      0x108 ./../../../../BitCloud/lib/libBc_All_At91sam7x512_Rf231_Gcc.a(nwk.o)
 .text.nwkConfirmLeaveChildTx
                0x0010a9d4       0x60 ./../../../../BitCloud/lib/libBc_All_At91sam7x512_Rf231_Gcc.a(nwk.o)
 .text.nwkConfirmJoinRespTx
                0x0010aa34       0x38 ./../../../../BitCloud/lib/libBc_All_At91sam7x512_Rf231_Gcc.a(nwk.o)
 .text.nwkConfirmAddrConflictJoinRespTx
                0x0010aa6c       0x24 ./../../../../BitCloud/lib/libBc_All_At91sam7x512_Rf231_Gcc.a(nwk.o)
 .text.nwkLeaveFrameInd
                0x0010aa90       0xe0 ./../../../../BitCloud/lib/libBc_All_At91sam7x512_Rf231_Gcc.a(nwk.o)
 .text.nwkJoinIndMacCommStatusInd
                0x0010ab70       0x44 ./../../../../BitCloud/lib/libBc_All_At91sam7x512_Rf231_Gcc.a(nwk.o)
 .text.NWK_GetShortByExtAddress
                0x0010abb4       0x40 ./../../../../BitCloud/lib/libBc_All_At91sam7x512_Rf231_Gcc.a(nwk.o)
                0x0010abb4                NWK_GetShortByExtAddress
 .text.NWK_LinkShortAndExtAddress
                0x0010abf4       0x78 ./../../../../BitCloud/lib/libBc_All_At91sam7x512_Rf231_Gcc.a(nwk.o)
                0x0010abf4                NWK_LinkShortAndExtAddress
 .text.nwkRouteReplyFrameInd
                0x0010ac6c      0x1b4 ./../../../../BitCloud/lib/libBc_All_At91sam7x512_Rf231_Gcc.a(nwk.o)
 .text.nwkRouteRequestFrameInd
                0x0010ae20       0xd8 ./../../../../BitCloud/lib/libBc_All_At91sam7x512_Rf231_Gcc.a(nwk.o)
 .text.NWK_GetNeighborTable
                0x0010aef8        0x8 ./../../../../BitCloud/lib/libBc_All_At91sam7x512_Rf231_Gcc.a(nwk.o)
                0x0010aef8                NWK_GetNeighborTable
 .text.NWK_GetNeighborsLqi
                0x0010af00       0x1c ./../../../../BitCloud/lib/libBc_All_At91sam7x512_Rf231_Gcc.a(nwk.o)
                0x0010af00                NWK_GetNeighborsLqi
 .text.NWK_GetNeighborsRssi
                0x0010af1c       0x20 ./../../../../BitCloud/lib/libBc_All_At91sam7x512_Rf231_Gcc.a(nwk.o)
                0x0010af1c                NWK_GetNeighborsRssi
 .text.NWK_IsKnownChild
                0x0010af3c       0x22 ./../../../../BitCloud/lib/libBc_All_At91sam7x512_Rf231_Gcc.a(nwk.o)
                0x0010af3c                NWK_IsKnownChild
 .text.MAC_OrphanInd
                0x0010af5e        0x2 ./../../../../BitCloud/lib/libBc_All_At91sam7x512_Rf231_Gcc.a(nwk.o)
                0x0010af5e                MAC_OrphanInd
 .text.NWK_PermitJoiningReq
                0x0010af60       0x44 ./../../../../BitCloud/lib/libBc_All_At91sam7x512_Rf231_Gcc.a(nwk.o)
                0x0010af60                NWK_PermitJoiningReq
 .text.NWK_ResetReq
                0x0010afa4       0x28 ./../../../../BitCloud/lib/libBc_All_At91sam7x512_Rf231_Gcc.a(nwk.o)
                0x0010afa4                NWK_ResetReq
 .text.NWK_Init
                0x0010afcc       0x2c ./../../../../BitCloud/lib/libBc_All_At91sam7x512_Rf231_Gcc.a(nwk.o)
                0x0010afcc                NWK_Init
 .text.NWK_GatherPowerFailureInfo
                0x0010aff8        0x4 ./../../../../BitCloud/lib/libBc_All_At91sam7x512_Rf231_Gcc.a(nwk.o)
                0x0010aff8                NWK_GatherPowerFailureInfo
 .text.NWK_RouteDiscoveryReq
                0x0010affc       0x38 ./../../../../BitCloud/lib/libBc_All_At91sam7x512_Rf231_Gcc.a(nwk.o)
                0x0010affc                NWK_RouteDiscoveryReq
 .text.nwkTxTaskHandler
                0x0010b034      0x164 ./../../../../BitCloud/lib/libBc_All_At91sam7x512_Rf231_Gcc.a(nwk.o)
 .text.MAC_DataInd
                0x0010b198      0x464 ./../../../../BitCloud/lib/libBc_All_At91sam7x512_Rf231_Gcc.a(nwk.o)
                0x0010b198                MAC_DataInd
 .text.NWK_StartRouterReq
                0x0010b5fc       0x30 ./../../../../BitCloud/lib/libBc_All_At91sam7x512_Rf231_Gcc.a(nwk.o)
                0x0010b5fc                NWK_StartRouterReq
 .text.NWK_IsActiveTransaction
                0x0010b62c       0x4c ./../../../../BitCloud/lib/libBc_All_At91sam7x512_Rf231_Gcc.a(nwk.o)
                0x0010b62c                NWK_IsActiveTransaction
 .text.NWK_LaunchActivities
                0x0010b678       0x20 ./../../../../BitCloud/lib/libBc_All_At91sam7x512_Rf231_Gcc.a(nwk.o)
                0x0010b678                NWK_LaunchActivities
 .text.NWK_StopActivities
                0x0010b698       0x38 ./../../../../BitCloud/lib/libBc_All_At91sam7x512_Rf231_Gcc.a(nwk.o)
                0x0010b698                NWK_StopActivities
 .text.NWK_DeviceIsAbleToOperateInNetwork
                0x0010b6d0       0x14 ./../../../../BitCloud/lib/libBc_All_At91sam7x512_Rf231_Gcc.a(nwk.o)
                0x0010b6d0                NWK_DeviceIsAbleToOperateInNetwork
 .text.NWK_SyncReq
                0x0010b6e4       0x34 ./../../../../BitCloud/lib/libBc_All_At91sam7x512_Rf231_Gcc.a(nwk.o)
                0x0010b6e4                NWK_SyncReq
 .text.MAC_PollInd
                0x0010b718       0x36 ./../../../../BitCloud/lib/libBc_All_At91sam7x512_Rf231_Gcc.a(nwk.o)
                0x0010b718                MAC_PollInd
 .text.MAC_SyncLossInd
                0x0010b74e        0x2 ./../../../../BitCloud/lib/libBc_All_At91sam7x512_Rf231_Gcc.a(nwk.o)
                0x0010b74e                MAC_SyncLossInd
 .text.NWK_TaskHandler
                0x0010b750       0x84 ./../../../../BitCloud/lib/libBc_All_At91sam7x512_Rf231_Gcc.a(nwk.o)
                0x0010b750                NWK_TaskHandler
 .text.NWK_GetUnicastDeliveryTime
                0x0010b7d4       0x38 ./../../../../BitCloud/lib/libBc_All_At91sam7x512_Rf231_Gcc.a(nwk.o)
                0x0010b7d4                NWK_GetUnicastDeliveryTime
 .text.phyDispatcheRfInterrupt
                0x0010b80c      0x280 ./../../../../BitCloud/lib/libBc_All_At91sam7x512_Rf231_Gcc.a(phyRfIrqDispatcher.o)
                0x0010b80c                phyDispatcheRfInterrupt
 .text.phySetRTimerSource
                0x0010ba8c        0xc ./../../../../BitCloud/lib/libBc_All_At91sam7x512_Rf231_Gcc.a(phyRtimerIrqDispatcher.o)
                0x0010ba8c                phySetRTimerSource
 .text.phyDispatcheRTimerEvent
                0x0010ba98       0xec ./../../../../BitCloud/lib/libBc_All_At91sam7x512_Rf231_Gcc.a(phyRtimerIrqDispatcher.o)
                0x0010ba98                phyDispatcheRTimerEvent
 .text.deleteHeadQueueElem
                0x0010bb84       0x12 ./../../../../BitCloud/lib/libBc_All_At91sam7x512_Rf231_Gcc.a(queue.o)
                0x0010bb84                deleteHeadQueueElem
 .text.deleteQueueElem
                0x0010bb96       0x32 ./../../../../BitCloud/lib/libBc_All_At91sam7x512_Rf231_Gcc.a(queue.o)
                0x0010bb96                deleteQueueElem
 .text.isQueueElem
                0x0010bbc8       0x16 ./../../../../BitCloud/lib/libBc_All_At91sam7x512_Rf231_Gcc.a(queue.o)
                0x0010bbc8                isQueueElem
 .text.putQueueElem
                0x0010bbde       0x28 ./../../../../BitCloud/lib/libBc_All_At91sam7x512_Rf231_Gcc.a(queue.o)
                0x0010bbde                putQueueElem
 .text.SYS_DuplicateTableReset
                0x0010bc06       0x4e ./../../../../BitCloud/lib/libBc_All_At91sam7x512_Rf231_Gcc.a(sysDuplicateTable.o)
                0x0010bc06                SYS_DuplicateTableReset
 .text.duplicateTableUpdate
                0x0010bc54       0x50 ./../../../../BitCloud/lib/libBc_All_At91sam7x512_Rf231_Gcc.a(sysDuplicateTable.o)
                0x0010bc54                duplicateTableUpdate
 .text.SYS_DuplicateTableCheck
                0x0010bca4       0xac ./../../../../BitCloud/lib/libBc_All_At91sam7x512_Rf231_Gcc.a(sysDuplicateTable.o)
                0x0010bca4                SYS_DuplicateTableCheck
 .text.SYS_DuplicateTableClear
                0x0010bd50       0x46 ./../../../../BitCloud/lib/libBc_All_At91sam7x512_Rf231_Gcc.a(sysDuplicateTable.o)
                0x0010bd50                SYS_DuplicateTableClear
 *fill*         0x0010bd96        0x2 
 .text.SYS_PostEvent
                0x0010bd98       0x4c ./../../../../BitCloud/lib/libBc_All_At91sam7x512_Rf231_Gcc.a(sysEvents.o)
                0x0010bd98                SYS_PostEvent
 .text.SYS_IsEventDeliverable
                0x0010bde4       0x20 ./../../../../BitCloud/lib/libBc_All_At91sam7x512_Rf231_Gcc.a(sysEvents.o)
                0x0010bde4                SYS_IsEventDeliverable
 .text.SYS_IsEventSubscriber
                0x0010be04       0x1a ./../../../../BitCloud/lib/libBc_All_At91sam7x512_Rf231_Gcc.a(sysEvents.o)
                0x0010be04                SYS_IsEventSubscriber
 *fill*         0x0010be1e        0x2 
 .text.SYS_SubscribeToEvent
                0x0010be20       0x58 ./../../../../BitCloud/lib/libBc_All_At91sam7x512_Rf231_Gcc.a(sysEvents.o)
                0x0010be20                SYS_SubscribeToEvent
 .text.SYS_StartTimer
                0x0010be78       0x18 ./../../../../BitCloud/lib/libBc_All_At91sam7x512_Rf231_Gcc.a(sysTimer.o)
                0x0010be78                SYS_StartTimer
 .text.SYS_StopTimer
                0x0010be90       0x18 ./../../../../BitCloud/lib/libBc_All_At91sam7x512_Rf231_Gcc.a(sysTimer.o)
                0x0010be90                SYS_StopTimer
 .text.SYS_InitTimer
                0x0010bea8       0x1e ./../../../../BitCloud/lib/libBc_All_At91sam7x512_Rf231_Gcc.a(sysTimer.o)
                0x0010bea8                SYS_InitTimer
 *fill*         0x0010bec6        0x2 
 .text.SYS_RunTask
                0x0010bec8       0x54 ./../../../../BitCloud/lib/libBc_All_At91sam7x512_Rf231_Gcc.a(taskManager.o)
                0x0010bec8                SYS_RunTask
 .text.SYS_SysInit
                0x0010bf1c       0x2c ./../../../../BitCloud/lib/libBc_All_At91sam7x512_Rf231_Gcc.a(taskManager.o)
                0x0010bf1c                SYS_SysInit
 .text.APS_StopConf
                0x0010bf48       0x24 ./../../../../BitCloud/lib/libBc_All_At91sam7x512_Rf231_Gcc.a(zdo.o)
 .text.zdoNodeManagerNwkLeaveConf
                0x0010bf6c       0x10 ./../../../../BitCloud/lib/libBc_All_At91sam7x512_Rf231_Gcc.a(zdo.o)
 .text.zdoStackResetConf
                0x0010bf7c       0x28 ./../../../../BitCloud/lib/libBc_All_At91sam7x512_Rf231_Gcc.a(zdo.o)
 .text.zdoSecurityManagerHandler
                0x0010bfa4        0x2 ./../../../../BitCloud/lib/libBc_All_At91sam7x512_Rf231_Gcc.a(zdo.o)
                0x0010bfa4                zdoSecurityManagerHandler
 *fill*         0x0010bfa6        0x2 
 .text.joinNetwork
                0x0010bfa8       0x4c ./../../../../BitCloud/lib/libBc_All_At91sam7x512_Rf231_Gcc.a(zdo.o)
 .text.zdoRejoinNetwork
                0x0010bff4       0x28 ./../../../../BitCloud/lib/libBc_All_At91sam7x512_Rf231_Gcc.a(zdo.o)
 .text.zdoIntraPanPortApsStopConf
                0x0010c01c       0x24 ./../../../../BitCloud/lib/libBc_All_At91sam7x512_Rf231_Gcc.a(zdo.o)
 .text.joinTimerFired
                0x0010c040        0xc ./../../../../BitCloud/lib/libBc_All_At91sam7x512_Rf231_Gcc.a(zdo.o)
 .text.zdoPostTask
                0x0010c04c       0x34 ./../../../../BitCloud/lib/libBc_All_At91sam7x512_Rf231_Gcc.a(zdo.o)
 .text.startConfirm
                0x0010c080       0x38 ./../../../../BitCloud/lib/libBc_All_At91sam7x512_Rf231_Gcc.a(zdo.o)
 .text.sleepConfirm
                0x0010c0b8       0x2c ./../../../../BitCloud/lib/libBc_All_At91sam7x512_Rf231_Gcc.a(zdo.o)
 .text.wakeUpConfirm
                0x0010c0e4       0x2c ./../../../../BitCloud/lib/libBc_All_At91sam7x512_Rf231_Gcc.a(zdo.o)
 .text.zdoSetZdpIndState
                0x0010c110       0x20 ./../../../../BitCloud/lib/libBc_All_At91sam7x512_Rf231_Gcc.a(zdo.o)
 .text.ttlUpdateTimerFired
                0x0010c130       0x50 ./../../../../BitCloud/lib/libBc_All_At91sam7x512_Rf231_Gcc.a(zdo.o)
 .text.zdoZdpResetReq
                0x0010c180       0x94 ./../../../../BitCloud/lib/libBc_All_At91sam7x512_Rf231_Gcc.a(zdo.o)
 .text.zdoNetworkFormationReq
                0x0010c214       0x38 ./../../../../BitCloud/lib/libBc_All_At91sam7x512_Rf231_Gcc.a(zdo.o)
 .text.permitJoin
                0x0010c24c       0x30 ./../../../../BitCloud/lib/libBc_All_At91sam7x512_Rf231_Gcc.a(zdo.o)
 .text.zdoPseudoRandomSeed
                0x0010c27c       0x26 ./../../../../BitCloud/lib/libBc_All_At91sam7x512_Rf231_Gcc.a(zdo.o)
 *fill*         0x0010c2a2        0x2 
 .text.RF_RandomConfUpdater
                0x0010c2a4       0x20 ./../../../../BitCloud/lib/libBc_All_At91sam7x512_Rf231_Gcc.a(zdo.o)
 .text.zdoStackReset
                0x0010c2c4       0x34 ./../../../../BitCloud/lib/libBc_All_At91sam7x512_Rf231_Gcc.a(zdo.o)
 .text.startSystemSleep
                0x0010c2f8       0x3c ./../../../../BitCloud/lib/libBc_All_At91sam7x512_Rf231_Gcc.a(zdo.o)
 .text.transceiverSwitchedOff
                0x0010c334       0x1c ./../../../../BitCloud/lib/libBc_All_At91sam7x512_Rf231_Gcc.a(zdo.o)
 .text.zdoZdpManagerHandler
                0x0010c350      0x174 ./../../../../BitCloud/lib/libBc_All_At91sam7x512_Rf231_Gcc.a(zdo.o)
 .text.zdoNwkEventListener
                0x0010c4c4       0x60 ./../../../../BitCloud/lib/libBc_All_At91sam7x512_Rf231_Gcc.a(zdo.o)
 .text.zdoOtherEventListener
                0x0010c524       0x3c ./../../../../BitCloud/lib/libBc_All_At91sam7x512_Rf231_Gcc.a(zdo.o)
 .text.channelChangeTimerFired
                0x0010c560       0x38 ./../../../../BitCloud/lib/libBc_All_At91sam7x512_Rf231_Gcc.a(zdo.o)
 .text.zdoChildEventListener
                0x0010c598       0x98 ./../../../../BitCloud/lib/libBc_All_At91sam7x512_Rf231_Gcc.a(zdo.o)
 .text.zdoCheckStartNetworkRequestsQueue
                0x0010c630       0x34 ./../../../../BitCloud/lib/libBc_All_At91sam7x512_Rf231_Gcc.a(zdo.o)
 .text.reenterNetwork
                0x0010c664       0x3c ./../../../../BitCloud/lib/libBc_All_At91sam7x512_Rf231_Gcc.a(zdo.o)
 .text.zdoSetZdpDataReqState
                0x0010c6a0       0x30 ./../../../../BitCloud/lib/libBc_All_At91sam7x512_Rf231_Gcc.a(zdo.o)
 .text.confirmResponse
                0x0010c6d0        0xe ./../../../../BitCloud/lib/libBc_All_At91sam7x512_Rf231_Gcc.a(zdo.o)
 .text.zdoDefaultBindApsDataConf
                0x0010c6de        0xe ./../../../../BitCloud/lib/libBc_All_At91sam7x512_Rf231_Gcc.a(zdo.o)
 .text.confirmMgmtLqiResponse
                0x0010c6ec        0xe ./../../../../BitCloud/lib/libBc_All_At91sam7x512_Rf231_Gcc.a(zdo.o)
 *fill*         0x0010c6fa        0x2 
 .text.permitJoiningConf
                0x0010c6fc       0x24 ./../../../../BitCloud/lib/libBc_All_At91sam7x512_Rf231_Gcc.a(zdo.o)
 .text.confirmMgmtPermitJoiningResponse
                0x0010c720        0xe ./../../../../BitCloud/lib/libBc_All_At91sam7x512_Rf231_Gcc.a(zdo.o)
 *fill*         0x0010c72e        0x2 
 .text.zdoZdpApsConfCallback
                0x0010c730       0x74 ./../../../../BitCloud/lib/libBc_All_At91sam7x512_Rf231_Gcc.a(zdo.o)
 .text.zdoStartNetworkConfirm
                0x0010c7a4       0x30 ./../../../../BitCloud/lib/libBc_All_At91sam7x512_Rf231_Gcc.a(zdo.o)
 .text.startSyncTimer.part.4
                0x0010c7d4       0x40 ./../../../../BitCloud/lib/libBc_All_At91sam7x512_Rf231_Gcc.a(zdo.o)
 .text.zdoUpdateRandSeedTimerFired
                0x0010c814       0x3c ./../../../../BitCloud/lib/libBc_All_At91sam7x512_Rf231_Gcc.a(zdo.o)
 .text.sendSyncReq
                0x0010c850       0x40 ./../../../../BitCloud/lib/libBc_All_At91sam7x512_Rf231_Gcc.a(zdo.o)
 .text.transceiverSwitchedOn
                0x0010c890       0x44 ./../../../../BitCloud/lib/libBc_All_At91sam7x512_Rf231_Gcc.a(zdo.o)
 .text.wakeupCallback
                0x0010c8d4       0x50 ./../../../../BitCloud/lib/libBc_All_At91sam7x512_Rf231_Gcc.a(zdo.o)
 .text.zdoPowerManagerHandler
                0x0010c924       0xf8 ./../../../../BitCloud/lib/libBc_All_At91sam7x512_Rf231_Gcc.a(zdo.o)
 .text.confirmMgmtNwkUpdateNotify
                0x0010ca1c       0x44 ./../../../../BitCloud/lib/libBc_All_At91sam7x512_Rf231_Gcc.a(zdo.o)
 .text.MAC_SetConf
                0x0010ca60       0x7c ./../../../../BitCloud/lib/libBc_All_At91sam7x512_Rf231_Gcc.a(zdo.o)
 .text.zdoInitNotifications
                0x0010cadc       0x70 ./../../../../BitCloud/lib/libBc_All_At91sam7x512_Rf231_Gcc.a(zdo.o)
                0x0010cadc                zdoInitNotifications
 .text.zdoInitHandler
                0x0010cb4c       0xe8 ./../../../../BitCloud/lib/libBc_All_At91sam7x512_Rf231_Gcc.a(zdo.o)
 .text.NWK_JoinInd
                0x0010cc34       0x28 ./../../../../BitCloud/lib/libBc_All_At91sam7x512_Rf231_Gcc.a(zdo.o)
                0x0010cc34                NWK_JoinInd
 .text.ZDO_GetLqiRssi
                0x0010cc5c       0x2a ./../../../../BitCloud/lib/libBc_All_At91sam7x512_Rf231_Gcc.a(zdo.o)
                0x0010cc5c                ZDO_GetLqiRssi
 *fill*         0x0010cc86        0x2 
 .text.ZDO_SleepReq
                0x0010cc88       0x38 ./../../../../BitCloud/lib/libBc_All_At91sam7x512_Rf231_Gcc.a(zdo.o)
                0x0010cc88                ZDO_SleepReq
 .text.ZDO_StartSyncReq
                0x0010ccc0       0x34 ./../../../../BitCloud/lib/libBc_All_At91sam7x512_Rf231_Gcc.a(zdo.o)
                0x0010ccc0                ZDO_StartSyncReq
 .text.deviceAnnceConf
                0x0010ccf4       0x24 ./../../../../BitCloud/lib/libBc_All_At91sam7x512_Rf231_Gcc.a(zdo.o)
 .text.ZDO_StopSyncReq
                0x0010cd18       0x28 ./../../../../BitCloud/lib/libBc_All_At91sam7x512_Rf231_Gcc.a(zdo.o)
                0x0010cd18                ZDO_StopSyncReq
 .text.zdoLeaveNetworkReq.part.13
                0x0010cd40       0x50 ./../../../../BitCloud/lib/libBc_All_At91sam7x512_Rf231_Gcc.a(zdo.o)
 .text.zdoParentChangeConf
                0x0010cd90       0x50 ./../../../../BitCloud/lib/libBc_All_At91sam7x512_Rf231_Gcc.a(zdo.o)
 .text.confirmMgmtLeaveResponse
                0x0010cde0       0x98 ./../../../../BitCloud/lib/libBc_All_At91sam7x512_Rf231_Gcc.a(zdo.o)
 .text.leaveNetworkInd
                0x0010ce78       0x40 ./../../../../BitCloud/lib/libBc_All_At91sam7x512_Rf231_Gcc.a(zdo.o)
 .text.zdoLeaveNetworkNwkLeaveConf
                0x0010ceb8       0x20 ./../../../../BitCloud/lib/libBc_All_At91sam7x512_Rf231_Gcc.a(zdo.o)
 .text.NWK_LeaveInd
                0x0010ced8       0x54 ./../../../../BitCloud/lib/libBc_All_At91sam7x512_Rf231_Gcc.a(zdo.o)
                0x0010ced8                NWK_LeaveInd
 .text.zdoReset
                0x0010cf2c       0x3c ./../../../../BitCloud/lib/libBc_All_At91sam7x512_Rf231_Gcc.a(zdo.o)
 .text.zdoLeaveConfirm
                0x0010cf68       0xb0 ./../../../../BitCloud/lib/libBc_All_At91sam7x512_Rf231_Gcc.a(zdo.o)
 .text.ZDO_StartNetworkReq
                0x0010d018       0x18 ./../../../../BitCloud/lib/libBc_All_At91sam7x512_Rf231_Gcc.a(zdo.o)
                0x0010d018                ZDO_StartNetworkReq
 .text.ZDO_TaskHandler
                0x0010d030       0x64 ./../../../../BitCloud/lib/libBc_All_At91sam7x512_Rf231_Gcc.a(zdo.o)
                0x0010d030                ZDO_TaskHandler
 .text.APS_ZdoDataInd
                0x0010d094       0xe8 ./../../../../BitCloud/lib/libBc_All_At91sam7x512_Rf231_Gcc.a(zdo.o)
                0x0010d094                APS_ZdoDataInd
 .text.ZDO_ZdpReq
                0x0010d17c       0x3c ./../../../../BitCloud/lib/libBc_All_At91sam7x512_Rf231_Gcc.a(zdo.o)
                0x0010d17c                ZDO_ZdpReq
 .text.zdoSendDeviceAnnce
                0x0010d1b8       0xbc ./../../../../BitCloud/lib/libBc_All_At91sam7x512_Rf231_Gcc.a(zdo.o)
 .text.APS_StartConf
                0x0010d274       0x4c ./../../../../BitCloud/lib/libBc_All_At91sam7x512_Rf231_Gcc.a(zdo.o)
 .text.startAps
                0x0010d2c0       0x38 ./../../../../BitCloud/lib/libBc_All_At91sam7x512_Rf231_Gcc.a(zdo.o)
 .text.NWK_StartRouterConf
                0x0010d2f8       0x18 ./../../../../BitCloud/lib/libBc_All_At91sam7x512_Rf231_Gcc.a(zdo.o)
 .text.NWK_PermitJoinConf
                0x0010d310       0x60 ./../../../../BitCloud/lib/libBc_All_At91sam7x512_Rf231_Gcc.a(zdo.o)
 .text.zdoAuthenticationConf
                0x0010d370       0x34 ./../../../../BitCloud/lib/libBc_All_At91sam7x512_Rf231_Gcc.a(zdo.o)
                0x0010d370                zdoAuthenticationConf
 .text.zdoAuthenticationStart
                0x0010d3a4        0xe ./../../../../BitCloud/lib/libBc_All_At91sam7x512_Rf231_Gcc.a(zdo.o)
                0x0010d3a4                zdoAuthenticationStart
 *fill*         0x0010d3b2        0x2 
 .text.zdoSendDeviceAnnceConf
                0x0010d3b4       0x48 ./../../../../BitCloud/lib/libBc_All_At91sam7x512_Rf231_Gcc.a(zdo.o)
 .text.sendNwkUpdateNotify
                0x0010d3fc       0x4c ./../../../../BitCloud/lib/libBc_All_At91sam7x512_Rf231_Gcc.a(zdo.o)
 .text.zdoZdpFrameProcessorHandler
                0x0010d448     0x1278 ./../../../../BitCloud/lib/libBc_All_At91sam7x512_Rf231_Gcc.a(zdo.o)
 .text.edScanConf
                0x0010e6c0       0x18 ./../../../../BitCloud/lib/libBc_All_At91sam7x512_Rf231_Gcc.a(zdo.o)
 .text.zdoReloadZibFromConfigServer
                0x0010e6d8      0x164 ./../../../../BitCloud/lib/libBc_All_At91sam7x512_Rf231_Gcc.a(zdo.o)
                0x0010e6d8                zdoReloadZibFromConfigServer
 .text.zdoStartNetworkTaskHandler
                0x0010e83c       0xcc ./../../../../BitCloud/lib/libBc_All_At91sam7x512_Rf231_Gcc.a(zdo.o)
 .text.setNetworkParametersToZib
                0x0010e908       0x30 ./../../../../BitCloud/lib/libBc_All_At91sam7x512_Rf231_Gcc.a(zdo.o)
                0x0010e908                setNetworkParametersToZib
 .text.NWK_JoinConf
                0x0010e938       0x58 ./../../../../BitCloud/lib/libBc_All_At91sam7x512_Rf231_Gcc.a(zdo.o)
 .text.NWK_NetworkFormationConf
                0x0010e990       0x1c ./../../../../BitCloud/lib/libBc_All_At91sam7x512_Rf231_Gcc.a(zdo.o)
 .text.zdoStartNetworkStackResetConf
                0x0010e9ac       0x70 ./../../../../BitCloud/lib/libBc_All_At91sam7x512_Rf231_Gcc.a(zdo.o)
 .text.zdoPerformIntraPanPortability
                0x0010ea1c       0x40 ./../../../../BitCloud/lib/libBc_All_At91sam7x512_Rf231_Gcc.a(zdo.o)
                0x0010ea1c                zdoPerformIntraPanPortability
 .text.NWK_SyncConf
                0x0010ea5c       0x6c ./../../../../BitCloud/lib/libBc_All_At91sam7x512_Rf231_Gcc.a(zdo.o)
 .text.NWK_NwkStatusInd
                0x0010eac8       0xa0 ./../../../../BitCloud/lib/libBc_All_At91sam7x512_Rf231_Gcc.a(zdo.o)
                0x0010eac8                NWK_NwkStatusInd
 .text.SYS_Sleep
                0x0010eb68        0xc ./../../../../BitCloud/lib/libBc_All_At91sam7x512_Rf231_Gcc.a(bcSysSleep.o)
                0x0010eb68                SYS_Sleep
 .text.postNewMacRequest
                0x0010eb74       0x40 ./../../../../BitCloud/lib/libBc_All_At91sam7x512_Rf231_Gcc.a(machwdManager.o)
 .text.putReqInQueue
                0x0010ebb4       0x20 ./../../../../BitCloud/lib/libBc_All_At91sam7x512_Rf231_Gcc.a(machwdManager.o)
 .text.MACHWD_DataReq
                0x0010ebd4       0x10 ./../../../../BitCloud/lib/libBc_All_At91sam7x512_Rf231_Gcc.a(machwdManager.o)
                0x0010ebd4                MACHWD_DataReq
 .text.MACHWD_SetTrxStateReq
                0x0010ebe4       0x10 ./../../../../BitCloud/lib/libBc_All_At91sam7x512_Rf231_Gcc.a(machwdManager.o)
                0x0010ebe4                MACHWD_SetTrxStateReq
 .text.MACHWD_SetReq
                0x0010ebf4       0x10 ./../../../../BitCloud/lib/libBc_All_At91sam7x512_Rf231_Gcc.a(machwdManager.o)
                0x0010ebf4                MACHWD_SetReq
 .text.MACHWD_EdReq
                0x0010ec04       0x10 ./../../../../BitCloud/lib/libBc_All_At91sam7x512_Rf231_Gcc.a(machwdManager.o)
                0x0010ec04                MACHWD_EdReq
 .text.RF_RandomReq
                0x0010ec14       0x18 ./../../../../BitCloud/lib/libBc_All_At91sam7x512_Rf231_Gcc.a(machwdManager.o)
                0x0010ec14                RF_RandomReq
 .text.MACHWD_Reset
                0x0010ec2c       0x3c ./../../../../BitCloud/lib/libBc_All_At91sam7x512_Rf231_Gcc.a(machwdManager.o)
                0x0010ec2c                MACHWD_Reset
 .text.MAC_PHY_HWD_TaskHandler
                0x0010ec68      0x108 ./../../../../BitCloud/lib/libBc_All_At91sam7x512_Rf231_Gcc.a(machwdManager.o)
                0x0010ec68                MAC_PHY_HWD_TaskHandler
 .text.machwdSendConf2UpperLayer
                0x0010ed70       0x68 ./../../../../BitCloud/lib/libBc_All_At91sam7x512_Rf231_Gcc.a(machwdManager.o)
                0x0010ed70                machwdSendConf2UpperLayer
 .text.machwdSendDataInd2UpperLayer
                0x0010edd8        0xc ./../../../../BitCloud/lib/libBc_All_At91sam7x512_Rf231_Gcc.a(machwdManager.o)
                0x0010edd8                machwdSendDataInd2UpperLayer
 .text.machwdRegAccessReqHandler
                0x0010ede4       0x32 ./../../../../BitCloud/lib/libBc_All_At91sam7x512_Rf231_Gcc.a(machwdRegAccessHandler.o)
                0x0010ede4                machwdRegAccessReqHandler
 *fill*         0x0010ee16        0x2 
 .text.machwdReset
                0x0010ee18       0x88 ./../../../../BitCloud/lib/libBc_All_At91sam7x512_Rf231_Gcc.a(machwdResetHandler.o)
                0x0010ee18                machwdReset
 .text.machwdRndReqHandler
                0x0010eea0       0x14 ./../../../../BitCloud/lib/libBc_All_At91sam7x512_Rf231_Gcc.a(machwdRndHandler.o)
                0x0010eea0                machwdRndReqHandler
 .text.machwdResetRxBuffer
                0x0010eeb4       0x34 ./../../../../BitCloud/lib/libBc_All_At91sam7x512_Rf231_Gcc.a(machwdRxBuffer.o)
                0x0010eeb4                machwdResetRxBuffer
 .text.machwdNextBuffer
                0x0010eee8       0x10 ./../../../../BitCloud/lib/libBc_All_At91sam7x512_Rf231_Gcc.a(machwdRxBuffer.o)
                0x0010eee8                machwdNextBuffer
 .text.machwdReleaseBuffer
                0x0010eef8       0x48 ./../../../../BitCloud/lib/libBc_All_At91sam7x512_Rf231_Gcc.a(machwdRxBuffer.o)
                0x0010eef8                machwdReleaseBuffer
 .text.machwdNextBufferPresent
                0x0010ef40       0x24 ./../../../../BitCloud/lib/libBc_All_At91sam7x512_Rf231_Gcc.a(machwdRxBuffer.o)
                0x0010ef40                machwdNextBufferPresent
 .text.machwdRxFrameTaskHandler
                0x0010ef64       0x38 ./../../../../BitCloud/lib/libBc_All_At91sam7x512_Rf231_Gcc.a(machwdRxFrameHandler.o)
                0x0010ef64                machwdRxFrameTaskHandler
 .text.machwdRxFrameIndTaskHandler
                0x0010ef9c       0x8c ./../../../../BitCloud/lib/libBc_All_At91sam7x512_Rf231_Gcc.a(machwdRxFrameHandler.o)
                0x0010ef9c                machwdRxFrameIndTaskHandler
 .text.machwdSetReqHandler
                0x0010f028       0x84 ./../../../../BitCloud/lib/libBc_All_At91sam7x512_Rf231_Gcc.a(machwdSetHandler.o)
                0x0010f028                machwdSetReqHandler
 .text.machwdResetSetHandler
                0x0010f0ac       0x10 ./../../../../BitCloud/lib/libBc_All_At91sam7x512_Rf231_Gcc.a(machwdSetHandler.o)
                0x0010f0ac                machwdResetSetHandler
 .text.machwdGetPhyTrxCmd
                0x0010f0bc       0x18 ./../../../../BitCloud/lib/libBc_All_At91sam7x512_Rf231_Gcc.a(machwdTrxCtrl.o)
                0x0010f0bc                machwdGetPhyTrxCmd
 .text.machwdConvertTrxCmdToTrxState
                0x0010f0d4       0x18 ./../../../../BitCloud/lib/libBc_All_At91sam7x512_Rf231_Gcc.a(machwdTrxCtrl.o)
                0x0010f0d4                machwdConvertTrxCmdToTrxState
 .text.machwdConvertTrxStateToTrxCmd
                0x0010f0ec       0x20 ./../../../../BitCloud/lib/libBc_All_At91sam7x512_Rf231_Gcc.a(machwdTrxCtrl.o)
                0x0010f0ec                machwdConvertTrxStateToTrxCmd
 .text.machwdTrxReqHandler
                0x0010f10c       0x30 ./../../../../BitCloud/lib/libBc_All_At91sam7x512_Rf231_Gcc.a(machwdTrxHandler.o)
                0x0010f10c                machwdTrxReqHandler
 .text.executePhyDataReq
                0x0010f13c       0x22 ./../../../../BitCloud/lib/libBc_All_At91sam7x512_Rf231_Gcc.a(machwdTxFrameHandler.o)
 *fill*         0x0010f15e        0x2 
 .text.machwdTxFrameReqHandler
                0x0010f160       0x2c ./../../../../BitCloud/lib/libBc_All_At91sam7x512_Rf231_Gcc.a(machwdTxFrameHandler.o)
                0x0010f160                machwdTxFrameReqHandler
 .text.machwdTxFrameTaskHandler
                0x0010f18c       0x34 ./../../../../BitCloud/lib/libBc_All_At91sam7x512_Rf231_Gcc.a(machwdTxFrameHandler.o)
                0x0010f18c                machwdTxFrameTaskHandler
 .text.machwdResetTxFrameHandler
                0x0010f1c0        0x2 ./../../../../BitCloud/lib/libBc_All_At91sam7x512_Rf231_Gcc.a(machwdTxFrameHandler.o)
                0x0010f1c0                machwdResetTxFrameHandler
 *fill*         0x0010f1c2        0x2 
 .text.postponeAction.part.0
                0x0010f1c4       0x24 ./../../../../BitCloud/lib/libBc_All_At91sam7x512_Rf231_Gcc.a(machwiManager.o)
 .text.putReqInQueue
                0x0010f1e8       0x38 ./../../../../BitCloud/lib/libBc_All_At91sam7x512_Rf231_Gcc.a(machwiManager.o)
 .text.machwiSendConfToUpperLayer
                0x0010f220       0xc8 ./../../../../BitCloud/lib/libBc_All_At91sam7x512_Rf231_Gcc.a(machwiManager.o)
                0x0010f220                machwiSendConfToUpperLayer
 .text.MAC_HWI_TaskHandler
                0x0010f2e8       0xd0 ./../../../../BitCloud/lib/libBc_All_At91sam7x512_Rf231_Gcc.a(machwiManager.o)
                0x0010f2e8                MAC_HWI_TaskHandler
 .text.MAC_AssociateReq
                0x0010f3b8       0x10 ./../../../../BitCloud/lib/libBc_All_At91sam7x512_Rf231_Gcc.a(machwiManager.o)
                0x0010f3b8                MAC_AssociateReq
 .text.MAC_AssociateResp
                0x0010f3c8       0x10 ./../../../../BitCloud/lib/libBc_All_At91sam7x512_Rf231_Gcc.a(machwiManager.o)
                0x0010f3c8                MAC_AssociateResp
 .text.MAC_GetReq
                0x0010f3d8       0x10 ./../../../../BitCloud/lib/libBc_All_At91sam7x512_Rf231_Gcc.a(machwiManager.o)
                0x0010f3d8                MAC_GetReq
 .text.MAC_ResetReq
                0x0010f3e8       0x60 ./../../../../BitCloud/lib/libBc_All_At91sam7x512_Rf231_Gcc.a(machwiManager.o)
                0x0010f3e8                MAC_ResetReq
 .text.MAC_RxEnableReq
                0x0010f448       0x10 ./../../../../BitCloud/lib/libBc_All_At91sam7x512_Rf231_Gcc.a(machwiManager.o)
                0x0010f448                MAC_RxEnableReq
 .text.MAC_ScanReq
                0x0010f458       0x10 ./../../../../BitCloud/lib/libBc_All_At91sam7x512_Rf231_Gcc.a(machwiManager.o)
                0x0010f458                MAC_ScanReq
 .text.MAC_SetReq
                0x0010f468       0x10 ./../../../../BitCloud/lib/libBc_All_At91sam7x512_Rf231_Gcc.a(machwiManager.o)
                0x0010f468                MAC_SetReq
 .text.MAC_StartReq
                0x0010f478       0x10 ./../../../../BitCloud/lib/libBc_All_At91sam7x512_Rf231_Gcc.a(machwiManager.o)
                0x0010f478                MAC_StartReq
 .text.MAC_PollReq
                0x0010f488       0x10 ./../../../../BitCloud/lib/libBc_All_At91sam7x512_Rf231_Gcc.a(machwiManager.o)
                0x0010f488                MAC_PollReq
 .text.MAC_DataReq
                0x0010f498       0x10 ./../../../../BitCloud/lib/libBc_All_At91sam7x512_Rf231_Gcc.a(machwiManager.o)
                0x0010f498                MAC_DataReq
 .text.machwiSendAssociateInd
                0x0010f4a8       0x18 ./../../../../BitCloud/lib/libBc_All_At91sam7x512_Rf231_Gcc.a(machwiManager.o)
                0x0010f4a8                machwiSendAssociateInd
 .text.machwiSendDataInd
                0x0010f4c0       0x18 ./../../../../BitCloud/lib/libBc_All_At91sam7x512_Rf231_Gcc.a(machwiManager.o)
                0x0010f4c0                machwiSendDataInd
 .text.machwiSendBeaconNotifyInd
                0x0010f4d8       0x18 ./../../../../BitCloud/lib/libBc_All_At91sam7x512_Rf231_Gcc.a(machwiManager.o)
                0x0010f4d8                machwiSendBeaconNotifyInd
 .text.machwiSendSyncLossNotifyInd
                0x0010f4f0       0x18 ./../../../../BitCloud/lib/libBc_All_At91sam7x512_Rf231_Gcc.a(machwiManager.o)
                0x0010f4f0                machwiSendSyncLossNotifyInd
 .text.machwiSendOrphanInd
                0x0010f508       0x18 ./../../../../BitCloud/lib/libBc_All_At91sam7x512_Rf231_Gcc.a(machwiManager.o)
                0x0010f508                machwiSendOrphanInd
 .text.machwiSendPollInd
                0x0010f520       0x18 ./../../../../BitCloud/lib/libBc_All_At91sam7x512_Rf231_Gcc.a(machwiManager.o)
                0x0010f520                machwiSendPollInd
 .text.machwiTxTransactionReq
                0x0010f538       0x24 ./../../../../BitCloud/lib/libBc_All_At91sam7x512_Rf231_Gcc.a(machwiManager.o)
                0x0010f538                machwiTxTransactionReq
 .text.machwiTxBeaconReq
                0x0010f55c       0x24 ./../../../../BitCloud/lib/libBc_All_At91sam7x512_Rf231_Gcc.a(machwiManager.o)
                0x0010f55c                machwiTxBeaconReq
 .text.MAC_IsActiveTransaction
                0x0010f580       0x24 ./../../../../BitCloud/lib/libBc_All_At91sam7x512_Rf231_Gcc.a(machwiManager.o)
                0x0010f580                MAC_IsActiveTransaction
 .text.machwdDataConfirm
                0x0010f5a4       0x24 ./../../../../BitCloud/lib/libBc_All_At91sam7x512_Rf231_Gcc.a(machwiOrphanHandler.o)
 .text.machwiOrphanRespHandler
                0x0010f5c8      0x10c ./../../../../BitCloud/lib/libBc_All_At91sam7x512_Rf231_Gcc.a(machwiOrphanHandler.o)
                0x0010f5c8                machwiOrphanRespHandler
 .text.machwiOrphanNotificationInd
                0x0010f6d4       0x1e ./../../../../BitCloud/lib/libBc_All_At91sam7x512_Rf231_Gcc.a(machwiOrphanHandler.o)
                0x0010f6d4                machwiOrphanNotificationInd
 *fill*         0x0010f6f2        0x2 
 .text.MACHWD_DataInd
                0x0010f6f4       0x7c ./../../../../BitCloud/lib/libBc_All_At91sam7x512_Rf231_Gcc.a(machwiPanServer.o)
                0x0010f6f4                MACHWD_DataInd
 .text.machwiEnableBeaconTransmission
                0x0010f770       0x10 ./../../../../BitCloud/lib/libBc_All_At91sam7x512_Rf231_Gcc.a(machwiPanServer.o)
                0x0010f770                machwiEnableBeaconTransmission
 .text.machwiResetPanServer
                0x0010f780       0x10 ./../../../../BitCloud/lib/libBc_All_At91sam7x512_Rf231_Gcc.a(machwiPanServer.o)
                0x0010f780                machwiResetPanServer
 .text.switchingCompleted
                0x0010f790       0x18 ./../../../../BitCloud/lib/libBc_All_At91sam7x512_Rf231_Gcc.a(machwiPollHandler.o)
 .text.completeHandling
                0x0010f7a8       0x28 ./../../../../BitCloud/lib/libBc_All_At91sam7x512_Rf231_Gcc.a(machwiPollHandler.o)
 .text.machwdDataConfirm
                0x0010f7d0       0x50 ./../../../../BitCloud/lib/libBc_All_At91sam7x512_Rf231_Gcc.a(machwiPollHandler.o)
 .text.halPollTimerFired
                0x0010f820        0xc ./../../../../BitCloud/lib/libBc_All_At91sam7x512_Rf231_Gcc.a(machwiPollHandler.o)
 .text.machwiResetPollHandler
                0x0010f82c        0xc ./../../../../BitCloud/lib/libBc_All_At91sam7x512_Rf231_Gcc.a(machwiPollHandler.o)
                0x0010f82c                machwiResetPollHandler
 .text.machwiPollInd
                0x0010f838       0x36 ./../../../../BitCloud/lib/libBc_All_At91sam7x512_Rf231_Gcc.a(machwiPollHandler.o)
                0x0010f838                machwiPollInd
 *fill*         0x0010f86e        0x2 
 .text.machwiDataIndication
                0x0010f870      0x10c ./../../../../BitCloud/lib/libBc_All_At91sam7x512_Rf231_Gcc.a(machwiPollHandler.o)
                0x0010f870                machwiDataIndication
 .text.machwiPollReqHandler
                0x0010f97c      0x118 ./../../../../BitCloud/lib/libBc_All_At91sam7x512_Rf231_Gcc.a(machwiPollHandler.o)
                0x0010f97c                machwiPollReqHandler
 .text.machwiPurgeReqHandler
                0x0010fa94       0x2c ./../../../../BitCloud/lib/libBc_All_At91sam7x512_Rf231_Gcc.a(machwiPurgeHandler.o)
                0x0010fa94                machwiPurgeReqHandler
 .text.machwdSetTrxStateConfirm
                0x0010fac0       0x14 ./../../../../BitCloud/lib/libBc_All_At91sam7x512_Rf231_Gcc.a(machwiResetHandler.o)
 .text.machwdSetConfirm
                0x0010fad4       0x24 ./../../../../BitCloud/lib/libBc_All_At91sam7x512_Rf231_Gcc.a(machwiResetHandler.o)
 .text.machwiResetReqHandler
                0x0010faf8       0x78 ./../../../../BitCloud/lib/libBc_All_At91sam7x512_Rf231_Gcc.a(machwiResetHandler.o)
                0x0010faf8                machwiResetReqHandler
 .text.machwdSetTrxStateConfirm
                0x0010fb70       0x18 ./../../../../BitCloud/lib/libBc_All_At91sam7x512_Rf231_Gcc.a(machwiRxEnableHandler.o)
 .text.machwiRxEnableReqHandler
                0x0010fb88       0x30 ./../../../../BitCloud/lib/libBc_All_At91sam7x512_Rf231_Gcc.a(machwiRxEnableHandler.o)
                0x0010fb88                machwiRxEnableReqHandler
 .text.switchToActiveChannel
                0x0010fbb8       0x40 ./../../../../BitCloud/lib/libBc_All_At91sam7x512_Rf231_Gcc.a(machwiScanHandler.o)
 .text.setNextChannel
                0x0010fbf8       0x74 ./../../../../BitCloud/lib/libBc_All_At91sam7x512_Rf231_Gcc.a(machwiScanHandler.o)
 .text.machwdEdConfirm
                0x0010fc6c       0x84 ./../../../../BitCloud/lib/libBc_All_At91sam7x512_Rf231_Gcc.a(machwiScanHandler.o)
 .text.machwdSetConfirm
                0x0010fcf0      0x2b8 ./../../../../BitCloud/lib/libBc_All_At91sam7x512_Rf231_Gcc.a(machwiScanHandler.o)
 .text.machwdSetTrxStateConfirm
                0x0010ffa8       0xa0 ./../../../../BitCloud/lib/libBc_All_At91sam7x512_Rf231_Gcc.a(machwiScanHandler.o)
 .text.halScanTimerFired
                0x00110048       0x2c ./../../../../BitCloud/lib/libBc_All_At91sam7x512_Rf231_Gcc.a(machwiScanHandler.o)
 .text.machwdDataConfirm
                0x00110074       0x50 ./../../../../BitCloud/lib/libBc_All_At91sam7x512_Rf231_Gcc.a(machwiScanHandler.o)
 .text.machwiScanReqHandler
                0x001100c4      0x100 ./../../../../BitCloud/lib/libBc_All_At91sam7x512_Rf231_Gcc.a(machwiScanHandler.o)
                0x001100c4                machwiScanReqHandler
 .text.machwiBeaconInd
                0x001101c4      0x1bc ./../../../../BitCloud/lib/libBc_All_At91sam7x512_Rf231_Gcc.a(machwiScanHandler.o)
                0x001101c4                machwiBeaconInd
 .text.machwiCoordRealignmentCommandInd
                0x00110380       0xa4 ./../../../../BitCloud/lib/libBc_All_At91sam7x512_Rf231_Gcc.a(machwiScanHandler.o)
                0x00110380                machwiCoordRealignmentCommandInd
 .text.machwiResetScanHandler
                0x00110424        0xc ./../../../../BitCloud/lib/libBc_All_At91sam7x512_Rf231_Gcc.a(machwiScanHandler.o)
                0x00110424                machwiResetScanHandler
 .text.machwdSetConfirm
                0x00110430       0x14 ./../../../../BitCloud/lib/libBc_All_At91sam7x512_Rf231_Gcc.a(machwiSetGetHandler.o)
 .text.machwiGetReqHandler
                0x00110444       0x38 ./../../../../BitCloud/lib/libBc_All_At91sam7x512_Rf231_Gcc.a(machwiSetGetHandler.o)
                0x00110444                machwiGetReqHandler
 .text.machwiSetReqHandler
                0x0011047c       0x94 ./../../../../BitCloud/lib/libBc_All_At91sam7x512_Rf231_Gcc.a(machwiSetGetHandler.o)
                0x0011047c                machwiSetReqHandler
 .text.setHandling
                0x00110510       0x28 ./../../../../BitCloud/lib/libBc_All_At91sam7x512_Rf231_Gcc.a(machwiStartHandler.o)
 .text.setStartReqParam
                0x00110538       0xa0 ./../../../../BitCloud/lib/libBc_All_At91sam7x512_Rf231_Gcc.a(machwiStartHandler.o)
 .text.generateConfirm
                0x001105d8       0x44 ./../../../../BitCloud/lib/libBc_All_At91sam7x512_Rf231_Gcc.a(machwiStartHandler.o)
 .text.machwdSetConfirm
                0x0011061c      0x13c ./../../../../BitCloud/lib/libBc_All_At91sam7x512_Rf231_Gcc.a(machwiStartHandler.o)
 .text.machwdDataConfirm
                0x00110758       0x34 ./../../../../BitCloud/lib/libBc_All_At91sam7x512_Rf231_Gcc.a(machwiStartHandler.o)
 .text.machwiStartReqHandler
                0x0011078c       0x4c ./../../../../BitCloud/lib/libBc_All_At91sam7x512_Rf231_Gcc.a(machwiStartHandler.o)
                0x0011078c                machwiStartReqHandler
 .text.machwiResetStartHandler
                0x001107d8       0x10 ./../../../../BitCloud/lib/libBc_All_At91sam7x512_Rf231_Gcc.a(machwiStartHandler.o)
                0x001107d8                machwiResetStartHandler
 .text.machwdSetTrxStateConfirm
                0x001107e8       0x1c ./../../../../BitCloud/lib/libBc_All_At91sam7x512_Rf231_Gcc.a(machwiSwitchRxCtrl.o)
 .text.machwiSwitchRxAccordToRxOnWhenIdle
                0x00110804       0x3c ./../../../../BitCloud/lib/libBc_All_At91sam7x512_Rf231_Gcc.a(machwiSwitchRxCtrl.o)
                0x00110804                machwiSwitchRxAccordToRxOnWhenIdle
 .text.machwiResetTransactionHandler
                0x00110840       0x14 ./../../../../BitCloud/lib/libBc_All_At91sam7x512_Rf231_Gcc.a(machwiTransactionHandler.o)
                0x00110840                machwiResetTransactionHandler
 .text.machwiSendTransactionEvent
                0x00110854      0x164 ./../../../../BitCloud/lib/libBc_All_At91sam7x512_Rf231_Gcc.a(machwiTransactionHandler.o)
                0x00110854                machwiSendTransactionEvent
 .text.machwdDataConfirm
                0x001109b8       0x94 ./../../../../BitCloud/lib/libBc_All_At91sam7x512_Rf231_Gcc.a(machwiTransactionHandler.o)
 .text.transactionTimerFired
                0x00110a4c       0x34 ./../../../../BitCloud/lib/libBc_All_At91sam7x512_Rf231_Gcc.a(machwiTransactionQueue.o)
 .text.machwiPutTransactionToQueue
                0x00110a80       0x4c ./../../../../BitCloud/lib/libBc_All_At91sam7x512_Rf231_Gcc.a(machwiTransactionQueue.o)
                0x00110a80                machwiPutTransactionToQueue
 .text.machwiGetActivatedTransactionFromQueue
                0x00110acc       0x20 ./../../../../BitCloud/lib/libBc_All_At91sam7x512_Rf231_Gcc.a(machwiTransactionQueue.o)
                0x00110acc                machwiGetActivatedTransactionFromQueue
 .text.machwiTestAndKickQueueTransactions
                0x00110aec       0xb4 ./../../../../BitCloud/lib/libBc_All_At91sam7x512_Rf231_Gcc.a(machwiTransactionQueue.o)
                0x00110aec                machwiTestAndKickQueueTransactions
 .text.machwiFillPendingAddrSpecAndList
                0x00110ba0        0x8 ./../../../../BitCloud/lib/libBc_All_At91sam7x512_Rf231_Gcc.a(machwiTransactionQueue.o)
                0x00110ba0                machwiFillPendingAddrSpecAndList
 .text.machwiDeleteTransactionFromQueue
                0x00110ba8       0x24 ./../../../../BitCloud/lib/libBc_All_At91sam7x512_Rf231_Gcc.a(machwiTransactionQueue.o)
                0x00110ba8                machwiDeleteTransactionFromQueue
 .text.machwiPurgeTransactionFromQueue
                0x00110bcc       0x38 ./../../../../BitCloud/lib/libBc_All_At91sam7x512_Rf231_Gcc.a(machwiTransactionQueue.o)
                0x00110bcc                machwiPurgeTransactionFromQueue
 .text.machwiResetTransactionQueue
                0x00110c04       0x28 ./../../../../BitCloud/lib/libBc_All_At91sam7x512_Rf231_Gcc.a(machwiTransactionQueue.o)
                0x00110c04                machwiResetTransactionQueue
 .text.machwiTransactionQueueEmpty
                0x00110c2c       0x10 ./../../../../BitCloud/lib/libBc_All_At91sam7x512_Rf231_Gcc.a(machwiTransactionQueue.o)
                0x00110c2c                machwiTransactionQueueEmpty
 .text.phySetFreq
                0x00110c3c       0x34 ./../../../../BitCloud/lib/libBc_All_At91sam7x512_Rf231_Gcc.a(phyInit.o)
                0x00110c3c                phySetFreq
 .text.RF_Init  0x00110c70       0x60 ./../../../../BitCloud/lib/libBc_All_At91sam7x512_Rf231_Gcc.a(phyInit.o)
                0x00110c70                RF_Init
 .text.PHY_RegWriteReq
                0x00110cd0       0x34 ./../../../../BitCloud/lib/libBc_All_At91sam7x512_Rf231_Gcc.a(phyRegAccess.o)
                0x00110cd0                PHY_RegWriteReq
 .text.PHY_RegReadReq
                0x00110d04       0x34 ./../../../../BitCloud/lib/libBc_All_At91sam7x512_Rf231_Gcc.a(phyRegAccess.o)
                0x00110d04                PHY_RegReadReq
 .text.PHY_Reset
                0x00110d38       0xd0 ./../../../../BitCloud/lib/libBc_All_At91sam7x512_Rf231_Gcc.a(phyReset.o)
                0x00110d38                PHY_Reset
 .text.phyWriteRegister
                0x00110e08       0x22 ./../../../../BitCloud/lib/libBc_All_At91sam7x512_Rf231_Gcc.a(phyRfSpiProto.o)
                0x00110e08                phyWriteRegister
 .text.phyReadRegister
                0x00110e2a       0x2c ./../../../../BitCloud/lib/libBc_All_At91sam7x512_Rf231_Gcc.a(phyRfSpiProto.o)
                0x00110e2a                phyReadRegister
 .text.phyReadFrame
                0x00110e56       0x22 ./../../../../BitCloud/lib/libBc_All_At91sam7x512_Rf231_Gcc.a(phyRfSpiProto.o)
                0x00110e56                phyReadFrame
 .text.phyWriteFrame
                0x00110e78       0x2e ./../../../../BitCloud/lib/libBc_All_At91sam7x512_Rf231_Gcc.a(phyRfSpiProto.o)
                0x00110e78                phyWriteFrame
 *fill*         0x00110ea6        0x2 
 .text.PHY_RndReq
                0x00110ea8       0xdc ./../../../../BitCloud/lib/libBc_All_At91sam7x512_Rf231_Gcc.a(phyRnd.o)
                0x00110ea8                PHY_RndReq
 .text.PHY_DownloadFrame
                0x00110f84      0x150 ./../../../../BitCloud/lib/libBc_All_At91sam7x512_Rf231_Gcc.a(phyRxFrame.o)
                0x00110f84                PHY_DownloadFrame
 .text.storeParameterToRf
                0x001110d4       0x46 ./../../../../BitCloud/lib/libBc_All_At91sam7x512_Rf231_Gcc.a(phySet.o)
 *fill*         0x0011111a        0x2 
 .text.PHY_SetReq
                0x0011111c      0x168 ./../../../../BitCloud/lib/libBc_All_At91sam7x512_Rf231_Gcc.a(phySet.o)
                0x0011111c                PHY_SetReq
 .text.PHY_SetTrxStateReq
                0x00111284       0x90 ./../../../../BitCloud/lib/libBc_All_At91sam7x512_Rf231_Gcc.a(phySetTrxState.o)
                0x00111284                PHY_SetTrxStateReq
 .text.PHY_CheckStateTransition
                0x00111314       0x1a ./../../../../BitCloud/lib/libBc_All_At91sam7x512_Rf231_Gcc.a(phyStateMachine.o)
                0x00111314                PHY_CheckStateTransition
 *fill*         0x0011132e        0x2 
 .text.PHY_DataReq
                0x00111330       0x2c ./../../../../BitCloud/lib/libBc_All_At91sam7x512_Rf231_Gcc.a(phyTxFrame.o)
                0x00111330                PHY_DataReq
 .text.machwdCalibReqHandler
                0x0011135c       0x14 ./../../../../BitCloud/lib/libBc_All_At91sam7x512_Rf231_Gcc.a(machwdCalibHandler.o)
                0x0011135c                machwdCalibReqHandler
 .text.machwdEdReqHandler
                0x00111370       0x18 ./../../../../BitCloud/lib/libBc_All_At91sam7x512_Rf231_Gcc.a(machwdEdHandler.o)
                0x00111370                machwdEdReqHandler
 .text.machwdEdTaskHandler
                0x00111388       0x20 ./../../../../BitCloud/lib/libBc_All_At91sam7x512_Rf231_Gcc.a(machwdEdHandler.o)
                0x00111388                machwdEdTaskHandler
 .text.composePanIdAndAddress
                0x001113a8       0x52 ./../../../../BitCloud/lib/libBc_All_At91sam7x512_Rf231_Gcc.a(machwdFrameRoutine.o)
 *fill*         0x001113fa        0x2 
 .text.parsePanIdAndAddress
                0x001113fc       0x4c ./../../../../BitCloud/lib/libBc_All_At91sam7x512_Rf231_Gcc.a(machwdFrameRoutine.o)
 .text.machwdParseFrame
                0x00111448      0x252 ./../../../../BitCloud/lib/libBc_All_At91sam7x512_Rf231_Gcc.a(machwdFrameRoutine.o)
                0x00111448                machwdParseFrame
 *fill*         0x0011169a        0x2 
 .text.machwdComposeFrame
                0x0011169c      0x190 ./../../../../BitCloud/lib/libBc_All_At91sam7x512_Rf231_Gcc.a(machwdFrameRoutine.o)
                0x0011169c                machwdComposeFrame
 .text.machwdGetHandlerId
                0x0011182c       0x38 ./../../../../BitCloud/lib/libBc_All_At91sam7x512_Rf231_Gcc.a(machwdHandlerCtrl.o)
                0x0011182c                machwdGetHandlerId
 .text.setHandling
                0x00111864       0x28 ./../../../../BitCloud/lib/libBc_All_At91sam7x512_Rf231_Gcc.a(machwiAssociateHandler.o)
 .text.completeHandling
                0x0011188c       0x28 ./../../../../BitCloud/lib/libBc_All_At91sam7x512_Rf231_Gcc.a(machwiAssociateHandler.o)
 .text.machwdSetConfirm
                0x001118b4      0x124 ./../../../../BitCloud/lib/libBc_All_At91sam7x512_Rf231_Gcc.a(machwiAssociateHandler.o)
 .text.machwdDataConfirm
                0x001119d8       0x8c ./../../../../BitCloud/lib/libBc_All_At91sam7x512_Rf231_Gcc.a(machwiAssociateHandler.o)
 .text.associateTimerFired
                0x00111a64       0xc4 ./../../../../BitCloud/lib/libBc_All_At91sam7x512_Rf231_Gcc.a(machwiAssociateHandler.o)
 .text.switchingCompleted
                0x00111b28       0x18 ./../../../../BitCloud/lib/libBc_All_At91sam7x512_Rf231_Gcc.a(machwiAssociateHandler.o)
 .text.machwiResetAssociateHandler
                0x00111b40        0xc ./../../../../BitCloud/lib/libBc_All_At91sam7x512_Rf231_Gcc.a(machwiAssociateHandler.o)
                0x00111b40                machwiResetAssociateHandler
 .text.machwiAssociateReqInd
                0x00111b4c       0x38 ./../../../../BitCloud/lib/libBc_All_At91sam7x512_Rf231_Gcc.a(machwiAssociateHandler.o)
                0x00111b4c                machwiAssociateReqInd
 .text.machwiAssociateReqHandler
                0x00111b84       0x78 ./../../../../BitCloud/lib/libBc_All_At91sam7x512_Rf231_Gcc.a(machwiAssociateHandler.o)
                0x00111b84                machwiAssociateReqHandler
 .text.machwiAssociateRespHandler
                0x00111bfc       0x24 ./../../../../BitCloud/lib/libBc_All_At91sam7x512_Rf231_Gcc.a(machwiAssociateHandler.o)
                0x00111bfc                machwiAssociateRespHandler
 .text.machwiAssociateRespInd
                0x00111c20       0x98 ./../../../../BitCloud/lib/libBc_All_At91sam7x512_Rf231_Gcc.a(machwiAssociateHandler.o)
                0x00111c20                machwiAssociateRespInd
 .text.machwdDataConfirm
                0x00111cb8       0x14 ./../../../../BitCloud/lib/libBc_All_At91sam7x512_Rf231_Gcc.a(machwiBeaconHandler.o)
 .text.machwiSendBeacon
                0x00111ccc       0xec ./../../../../BitCloud/lib/libBc_All_At91sam7x512_Rf231_Gcc.a(machwiBeaconHandler.o)
                0x00111ccc                machwiSendBeacon
 .text.machwiConvertmachwdDataConfirmTypes
                0x00111db8       0x1c ./../../../../BitCloud/lib/libBc_All_At91sam7x512_Rf231_Gcc.a(machwiDataHandler.o)
                0x00111db8                machwiConvertmachwdDataConfirmTypes
 .text.machwdDataConfirm
                0x00111dd4       0x24 ./../../../../BitCloud/lib/libBc_All_At91sam7x512_Rf231_Gcc.a(machwiDataHandler.o)
 .text.machwiPrepareDataFrame
                0x00111df8       0xc8 ./../../../../BitCloud/lib/libBc_All_At91sam7x512_Rf231_Gcc.a(machwiDataHandler.o)
                0x00111df8                machwiPrepareDataFrame
 .text.machwiDataReqHandler
                0x00111ec0       0x7c ./../../../../BitCloud/lib/libBc_All_At91sam7x512_Rf231_Gcc.a(machwiDataHandler.o)
                0x00111ec0                machwiDataReqHandler
 .text.PHY_CalibReq
                0x00111f3c       0xa8 ./../../../../BitCloud/lib/libBc_All_At91sam7x512_Rf231_Gcc.a(phyCalib.o)
                0x00111f3c                PHY_CalibReq
 .text.PHY_EdReq
                0x00111fe4       0x44 ./../../../../BitCloud/lib/libBc_All_At91sam7x512_Rf231_Gcc.a(phyEd.o)
                0x00111fe4                PHY_EdReq
 .text.HAL_Init
                0x00112028       0x18 ./../../../../BitCloud/lib/libHAL_deRFarm7_At91sam7x512_48Mhz_Gcc.a(halInit.o)
                0x00112028                HAL_Init
 .text.halLowLevelInit
                0x00112040      0x10c ./../../../../BitCloud/lib/libHAL_deRFarm7_At91sam7x512_48Mhz_Gcc.a(halLowLevelInit.o)
                0x00112040                halLowLevelInit
 .text.halReadUid
                0x0011214c       0x64 ./../../../../BitCloud/lib/libHAL_deRFarm7_At91sam7x512_48Mhz_Gcc.a(halUid.o)
                0x0011214c                halReadUid
 .text.HAL_ReadUid
                0x001121b0       0x28 ./../../../../BitCloud/lib/libHAL_deRFarm7_At91sam7x512_48Mhz_Gcc.a(halUid.o)
                0x001121b0                HAL_ReadUid
 .text.HAL_StartSystemSleep
                0x001121d8       0x34 ./../../../../BitCloud/lib/libHAL_deRFarm7_At91sam7x512_48Mhz_Gcc.a(sleep.o)
                0x001121d8                HAL_StartSystemSleep
 *fill*         0x0011220c        0x4 
 .text.HAL_StartSystemSleep.__stub
                0x00112210      0x114 linker stubs
 *(.rodata)
 .rodata        0x00112330       0x18 ./../../../../BitCloud/lib/libHAL_deRFarm7_At91sam7x512_48Mhz_Gcc.a(usart.o)
 .rodata        0x00112348        0x4 ./../../../../BitCloud/lib/libHAL_deRFarm7_At91sam7x512_48Mhz_Gcc.a(dbgPort.o)
 .rodata        0x0011234c       0x20 ./../../../../BitCloud/lib/libBc_All_At91sam7x512_Rf231_Gcc.a(aps.o)
 .rodata        0x0011236c      0x2b8 ./../../../../BitCloud/lib/libBc_All_At91sam7x512_Rf231_Gcc.a(nwk.o)
 .rodata        0x00112624       0x2c ./../../../../BitCloud/lib/libBc_All_At91sam7x512_Rf231_Gcc.a(taskManager.o)
 .rodata        0x00112650       0x18 ./../../../../BitCloud/lib/libBc_All_At91sam7x512_Rf231_Gcc.a(zdo.o)
 .rodata        0x00112668       0x16 ./../../../../BitCloud/lib/libBc_All_At91sam7x512_Rf231_Gcc.a(machwdTrxCtrl.o)
 .rodata        0x0011267e        0x6 ./../../../../BitCloud/lib/libBc_All_At91sam7x512_Rf231_Gcc.a(machwdTxFrameHandler.o)
 .rodata        0x00112684       0x15 ./../../../../BitCloud/lib/libBc_All_At91sam7x512_Rf231_Gcc.a(phySet.o)
 .rodata        0x00112699        0x2 ./../../../../BitCloud/lib/libBc_All_At91sam7x512_Rf231_Gcc.a(machwdFrameRoutine.o)
 .rodata        0x0011269b        0x2 ./../../../../BitCloud/lib/libBc_All_At91sam7x512_Rf231_Gcc.a(machwiDataHandler.o)
 *(.rodata*)
 .rodata.str1.1
                0x0011269d      0x387 ./../../../../BitCloud/lib/libHAL_deRFarm7_At91sam7x512_48Mhz_Gcc.a(dbgPort.o)
                                0x38c (size before relaxing)
 .rodata.str1.4
                0x00112a24        0x4 /home/bazi/intelligent-house/CodeSourcery/bin/../lib/gcc/arm-none-eabi/4.7.3/../../../../arm-none-eabi/lib/thumb/libc.a(lib_a-impure.o)
 *(.glue_7)
 .glue_7        0x00000000        0x0 linker stubs
 *(.glue_7t)
 .glue_7t       0x00000000        0x0 linker stubs
                0x00112a28                __end_of_text__ = .

.vfp11_veneer   0x00112a28        0x0
 .vfp11_veneer  0x00000000        0x0 linker stubs

.v4_bx          0x00112a28        0x0
 .v4_bx         0x00000000        0x0 linker stubs

.iplt           0x00112a28        0x0
 .iplt          0x00000000        0x0 All_deRFarm7_At91sam7x512_Rf231_Gcc/Obj/WSNSensorManager.o

.rel.dyn        0x00112a28        0x0
 .rel.iplt      0x00000000        0x0 All_deRFarm7_At91sam7x512_Rf231_Gcc/Obj/WSNSensorManager.o

.data           0x00200000      0x890 load address 0x00112a28
                0x00200000                __data_beg__ = .
                0x00112a28                __data_beg_src__ = __end_of_text__
 *(.data)
 .data          0x00200000       0x20 All_deRFarm7_At91sam7x512_Rf231_Gcc/Obj/WSNEndDevice.o
                0x00200000                endDeviceDevCmdDescTable
                0x00200008                appEndDeviceCmdDescTable
 .data          0x00200020       0x35 All_deRFarm7_At91sam7x512_Rf231_Gcc/Obj/WSNDemoApp.o
                0x00200020                appNwkInfo
 *fill*         0x00200055        0x3 
 .data          0x00200058      0x3e0 All_deRFarm7_At91sam7x512_Rf231_Gcc/Obj/csMem.o
                0x00200058                defaultNIB
                0x002000e8                defaultZIB
                0x00200120                defaultAIB
                0x00200128                defaultSIB
                0x00200178                csMemoryItems
                0x00200410                csReadOnlyItems
 .data          0x00200438       0x28 ./../../../../BitCloud/lib/libBc_All_At91sam7x512_Rf231_Gcc.a(zdo.o)
 .data          0x00200460      0x430 /home/bazi/intelligent-house/CodeSourcery/bin/../lib/gcc/arm-none-eabi/4.7.3/../../../../arm-none-eabi/lib/thumb/libc.a(lib_a-impure.o)
                0x00200460                _impure_ptr
                0x00200890                __data_end__ = .

.igot.plt       0x00200890        0x0 load address 0x001132b8
 .igot.plt      0x00000000        0x0 All_deRFarm7_At91sam7x512_Rf231_Gcc/Obj/WSNSensorManager.o

.bss            0x00200890     0x1ea1 load address 0x001132b8
                0x00200890                __bss_beg__ = .
 *(.bss)
 .bss           0x00200890        0x4 All_deRFarm7_At91sam7x512_Rf231_Gcc/Obj/WSNSensorManager.o
 .bss           0x00200894       0x20 All_deRFarm7_At91sam7x512_Rf231_Gcc/Obj/WSNEndDevice.o
 *fill*         0x002008b4        0x4 
 .bss           0x002008b8      0x208 All_deRFarm7_At91sam7x512_Rf231_Gcc/Obj/WSNMessageSender.o
 .bss           0x00200ac0      0x248 All_deRFarm7_At91sam7x512_Rf231_Gcc/Obj/WSNCommandHandler.o
 .bss           0x00200d08      0x178 All_deRFarm7_At91sam7x512_Rf231_Gcc/Obj/WSNDemoApp.o
 .bss           0x00200e80        0x1 All_deRFarm7_At91sam7x512_Rf231_Gcc/Obj/bspTaskManager.o
                0x00200e80                bspTaskFlags
 *fill*         0x00200e81        0x3 
 .bss           0x00200e84       0x1c All_deRFarm7_At91sam7x512_Rf231_Gcc/Obj/joystick.o
 .bss           0x00200ea0        0x4 ./../../../../BitCloud/lib/libHAL_deRFarm7_At91sam7x512_48Mhz_Gcc.a(appTimer.o)
 .bss           0x00200ea4       0x20 ./../../../../BitCloud/lib/libHAL_deRFarm7_At91sam7x512_48Mhz_Gcc.a(usart.o)
                0x00200ea4                halPointDescrip
 .bss           0x00200ec4        0xc ./../../../../BitCloud/lib/libHAL_deRFarm7_At91sam7x512_48Mhz_Gcc.a(halAppClock.o)
                0x00200ecc                halAppTimeOvfw
 .bss           0x00200ed0        0x4 ./../../../../BitCloud/lib/libHAL_deRFarm7_At91sam7x512_48Mhz_Gcc.a(halTaskManager.o)
                0x00200ed0                halTaskFlags
 .bss           0x00200ed4        0x4 ./../../../../BitCloud/lib/libHAL_deRFarm7_At91sam7x512_48Mhz_Gcc.a(adc.o)
                0x00200ed4                adcDesc
 .bss           0x00200ed8       0x10 ./../../../../BitCloud/lib/libHAL_deRFarm7_At91sam7x512_48Mhz_Gcc.a(halSpi.o)
                0x00200ed8                tx_rf_callback
                0x00200edc                rx_rf_callback
                0x00200ee0                mem_spi_callback
                0x00200ee4                halSpiCurrentState
 .bss           0x00200ee8       0x60 ./../../../../BitCloud/lib/libBc_All_At91sam7x512_Rf231_Gcc.a(aps.o)
                0x00200f40                apsState
 .bss           0x00200f48        0x8 ./../../../../BitCloud/lib/libBc_All_At91sam7x512_Rf231_Gcc.a(sysEvents.o)
 .bss           0x00200f50        0x2 ./../../../../BitCloud/lib/libBc_All_At91sam7x512_Rf231_Gcc.a(taskManager.o)
                0x00200f50                SYS_taskFlag
 *fill*         0x00200f52        0x2 
 .bss           0x00200f54        0x8 ./../../../../BitCloud/lib/libBc_All_At91sam7x512_Rf231_Gcc.a(machwdManager.o)
                0x00200f54                machwdQueueDescr
 .bss           0x00200f5c        0x1 ./../../../../BitCloud/lib/libBc_All_At91sam7x512_Rf231_Gcc.a(machwdSetHandler.o)
 .bss           0x00200f5d        0x1 ./../../../../BitCloud/lib/libBc_All_At91sam7x512_Rf231_Gcc.a(machwiScanHandler.o)
 *fill*         0x00200f5e        0x2 
 .bss           0x00200f60        0x8 ./../../../../BitCloud/lib/libHAL_deRFarm7_At91sam7x512_48Mhz_Gcc.a(halUid.o)
 .bss           0x00200f68       0x14 ./../../../../BitCloud/lib/libHAL_deRFarm7_At91sam7x512_48Mhz_Gcc.a(sleep.o)
 COMMON         0x00200f7c        0xc All_deRFarm7_At91sam7x512_Rf231_Gcc/Obj/fakeBSP.o
                0x00200f7c                readBatteryDataCallback
                0x00200f80                readTemperatureDataCallback
                0x00200f84                readLightDataCallback
 COMMON         0x00200f88      0xcb8 All_deRFarm7_At91sam7x512_Rf231_Gcc/Obj/csMem.o
                0x00200f88                stackBuffers
                0x00201ad8                csAIB
                0x00201ae0                csZIB
                0x00201b18                csPIB
                0x00201b60                csSIB
                0x00201bb0                csNIB
 COMMON         0x00201c40        0x4 ./../../../../BitCloud/lib/libHAL_deRFarm7_At91sam7x512_48Mhz_Gcc.a(i2cPacket.o)
                0x00201c40                halI2cDesc
 COMMON         0x00201c44        0x6 ./../../../../BitCloud/lib/libHAL_deRFarm7_At91sam7x512_48Mhz_Gcc.a(halMacIsr.o)
                0x00201c44                __rtimer
 *fill*         0x00201c4a        0x2 
 COMMON         0x00201c4c       0x40 ./../../../../BitCloud/lib/libHAL_deRFarm7_At91sam7x512_48Mhz_Gcc.a(dbgPort.o)
                0x00201c4c                halAvarRegState
 *fill*         0x00201c8c        0x4 
 COMMON         0x00201c90      0x158 ./../../../../BitCloud/lib/libBc_All_At91sam7x512_Rf231_Gcc.a(aps.o)
                0x00201c90                apsMem
 COMMON         0x00201de8      0x2e0 ./../../../../BitCloud/lib/libBc_All_At91sam7x512_Rf231_Gcc.a(nwk.o)
                0x00201de8                nwkMem
 COMMON         0x002020c8      0x548 ./../../../../BitCloud/lib/libBc_All_At91sam7x512_Rf231_Gcc.a(zdo.o)
                0x002020c8                zdoMem
 COMMON         0x00202610      0x100 ./../../../../BitCloud/lib/libBc_All_At91sam7x512_Rf231_Gcc.a(macMem.o)
                0x00202610                macMem
 COMMON         0x00202710       0x21 ./../../../../BitCloud/lib/libBc_All_At91sam7x512_Rf231_Gcc.a(machwdFrameRoutine.o)
                0x00202710                txBuffer
                0x00202734                . = ALIGN (0x4)
                0x00202734                . = ALIGN (0x4)
                0x00202734                _end = .
                0x00202734                _bss_end__ = .
                0x00202734                __bss_end__ = .
                0x00202734                __end__ = .
                0x00202734                PROVIDE (end, .)
LOAD All_deRFarm7_At91sam7x512_Rf231_Gcc/Obj/WSNSensorManager.o
LOAD All_deRFarm7_At91sam7x512_Rf231_Gcc/Obj/WSNVisualizer.o
LOAD All_deRFarm7_At91sam7x512_Rf231_Gcc/Obj/WSNEndDevice.o
LOAD All_deRFarm7_At91sam7x512_Rf231_Gcc/Obj/WSNCoord.o
LOAD All_deRFarm7_At91sam7x512_Rf231_Gcc/Obj/WSNMessageSender.o
LOAD All_deRFarm7_At91sam7x512_Rf231_Gcc/Obj/WSNCommandHandler.o
LOAD All_deRFarm7_At91sam7x512_Rf231_Gcc/Obj/WSNRouter.o
LOAD All_deRFarm7_At91sam7x512_Rf231_Gcc/Obj/WSNDemoApp.o
LOAD All_deRFarm7_At91sam7x512_Rf231_Gcc/Obj/WSNUARTManager.o
LOAD All_deRFarm7_At91sam7x512_Rf231_Gcc/Obj/pdsMem.o
LOAD All_deRFarm7_At91sam7x512_Rf231_Gcc/Obj/pdsWriteData.o
LOAD All_deRFarm7_At91sam7x512_Rf231_Gcc/Obj/pdsDataServer.o
LOAD All_deRFarm7_At91sam7x512_Rf231_Gcc/Obj/pdsInit.o
LOAD All_deRFarm7_At91sam7x512_Rf231_Gcc/Obj/pdsTimer.o
LOAD All_deRFarm7_At91sam7x512_Rf231_Gcc/Obj/pdsEvents.o
LOAD All_deRFarm7_At91sam7x512_Rf231_Gcc/Obj/pdsMemAccess.o
LOAD All_deRFarm7_At91sam7x512_Rf231_Gcc/Obj/pdsCrcService.o
LOAD All_deRFarm7_At91sam7x512_Rf231_Gcc/Obj/vcpVirtualUsart.o
LOAD All_deRFarm7_At91sam7x512_Rf231_Gcc/Obj/vcpCdcProtocol.o
LOAD All_deRFarm7_At91sam7x512_Rf231_Gcc/Obj/usbSetupProcess.o
LOAD All_deRFarm7_At91sam7x512_Rf231_Gcc/Obj/usbDescriptors.o
LOAD All_deRFarm7_At91sam7x512_Rf231_Gcc/Obj/usbEnumeration.o
LOAD All_deRFarm7_At91sam7x512_Rf231_Gcc/Obj/i2ceeprom.o
LOAD All_deRFarm7_At91sam7x512_Rf231_Gcc/Obj/fakeBSP.o
LOAD All_deRFarm7_At91sam7x512_Rf231_Gcc/Obj/leds.o
LOAD All_deRFarm7_At91sam7x512_Rf231_Gcc/Obj/bspTaskManager.o
LOAD All_deRFarm7_At91sam7x512_Rf231_Gcc/Obj/joystick.o
LOAD All_deRFarm7_At91sam7x512_Rf231_Gcc/Obj/csPersistentMem.o
LOAD All_deRFarm7_At91sam7x512_Rf231_Gcc/Obj/csMem.o
LOAD All_deRFarm7_At91sam7x512_Rf231_Gcc/Obj/configServer.o
START GROUP
LOAD ./../../../../BitCloud/lib/libHAL_deRFarm7_At91sam7x512_48Mhz_Gcc.a
LOAD ./../../../../BitCloud/lib/libBc_All_At91sam7x512_Rf231_Gcc.a
LOAD ./../../../../BitCloud/lib/FirmwareBoot_Gcc.o
END GROUP
START GROUP
LOAD /home/bazi/intelligent-house/CodeSourcery/bin/../lib/gcc/arm-none-eabi/4.7.3/thumb/libgcc.a
LOAD /home/bazi/intelligent-house/CodeSourcery/bin/../lib/gcc/arm-none-eabi/4.7.3/../../../../arm-none-eabi/lib/thumb/libc.a
END GROUP
OUTPUT(All_deRFarm7_At91sam7x512_Rf231_Gcc/Exe/WSNDemo_End_m7.elf elf32-littlearm)

.debug_info     0x00000000     0xf7df
 .debug_info    0x00000000      0x762 All_deRFarm7_At91sam7x512_Rf231_Gcc/Obj/WSNSensorManager.o
 .debug_info    0x00000762      0x4f8 All_deRFarm7_At91sam7x512_Rf231_Gcc/Obj/WSNVisualizer.o
 .debug_info    0x00000c5a     0x1656 All_deRFarm7_At91sam7x512_Rf231_Gcc/Obj/WSNEndDevice.o
 .debug_info    0x000022b0     0x12c3 All_deRFarm7_At91sam7x512_Rf231_Gcc/Obj/WSNMessageSender.o
 .debug_info    0x00003573      0xad6 All_deRFarm7_At91sam7x512_Rf231_Gcc/Obj/WSNCommandHandler.o
 .debug_info    0x00004049     0x311b All_deRFarm7_At91sam7x512_Rf231_Gcc/Obj/WSNDemoApp.o
 .debug_info    0x00007164      0x58a All_deRFarm7_At91sam7x512_Rf231_Gcc/Obj/fakeBSP.o
 .debug_info    0x000076ee      0x7f4 All_deRFarm7_At91sam7x512_Rf231_Gcc/Obj/leds.o
 .debug_info    0x00007ee2      0x269 All_deRFarm7_At91sam7x512_Rf231_Gcc/Obj/bspTaskManager.o
 .debug_info    0x0000814b      0xaa8 All_deRFarm7_At91sam7x512_Rf231_Gcc/Obj/joystick.o
 .debug_info    0x00008bf3     0x356d All_deRFarm7_At91sam7x512_Rf231_Gcc/Obj/csMem.o
 .debug_info    0x0000c160     0x367f All_deRFarm7_At91sam7x512_Rf231_Gcc/Obj/configServer.o

.debug_abbrev   0x00000000     0x1daa
 .debug_abbrev  0x00000000      0x1bd All_deRFarm7_At91sam7x512_Rf231_Gcc/Obj/WSNSensorManager.o
 .debug_abbrev  0x000001bd      0x13a All_deRFarm7_At91sam7x512_Rf231_Gcc/Obj/WSNVisualizer.o
 .debug_abbrev  0x000002f7      0x30e All_deRFarm7_At91sam7x512_Rf231_Gcc/Obj/WSNEndDevice.o
 .debug_abbrev  0x00000605      0x377 All_deRFarm7_At91sam7x512_Rf231_Gcc/Obj/WSNMessageSender.o
 .debug_abbrev  0x0000097c      0x28b All_deRFarm7_At91sam7x512_Rf231_Gcc/Obj/WSNCommandHandler.o
 .debug_abbrev  0x00000c07      0x4cf All_deRFarm7_At91sam7x512_Rf231_Gcc/Obj/WSNDemoApp.o
 .debug_abbrev  0x000010d6      0x259 All_deRFarm7_At91sam7x512_Rf231_Gcc/Obj/fakeBSP.o
 .debug_abbrev  0x0000132f      0x14a All_deRFarm7_At91sam7x512_Rf231_Gcc/Obj/leds.o
 .debug_abbrev  0x00001479      0x151 All_deRFarm7_At91sam7x512_Rf231_Gcc/Obj/bspTaskManager.o
 .debug_abbrev  0x000015ca      0x2c2 All_deRFarm7_At91sam7x512_Rf231_Gcc/Obj/joystick.o
 .debug_abbrev  0x0000188c      0x247 All_deRFarm7_At91sam7x512_Rf231_Gcc/Obj/csMem.o
 .debug_abbrev  0x00001ad3      0x2d7 All_deRFarm7_At91sam7x512_Rf231_Gcc/Obj/configServer.o

.debug_loc      0x00000000     0x1612
 .debug_loc     0x00000000      0x1c7 All_deRFarm7_At91sam7x512_Rf231_Gcc/Obj/WSNSensorManager.o
 .debug_loc     0x000001c7       0x80 All_deRFarm7_At91sam7x512_Rf231_Gcc/Obj/WSNVisualizer.o
 .debug_loc     0x00000247      0x266 All_deRFarm7_At91sam7x512_Rf231_Gcc/Obj/WSNEndDevice.o
 .debug_loc     0x000004ad      0x400 All_deRFarm7_At91sam7x512_Rf231_Gcc/Obj/WSNMessageSender.o
 .debug_loc     0x000008ad      0x14d All_deRFarm7_At91sam7x512_Rf231_Gcc/Obj/WSNCommandHandler.o
 .debug_loc     0x000009fa      0x5ea All_deRFarm7_At91sam7x512_Rf231_Gcc/Obj/WSNDemoApp.o
 .debug_loc     0x00000fe4      0x171 All_deRFarm7_At91sam7x512_Rf231_Gcc/Obj/fakeBSP.o
 .debug_loc     0x00001155       0x80 All_deRFarm7_At91sam7x512_Rf231_Gcc/Obj/leds.o
 .debug_loc     0x000011d5       0x36 All_deRFarm7_At91sam7x512_Rf231_Gcc/Obj/bspTaskManager.o
 .debug_loc     0x0000120b      0x161 All_deRFarm7_At91sam7x512_Rf231_Gcc/Obj/joystick.o
 .debug_loc     0x0000136c       0x20 All_deRFarm7_At91sam7x512_Rf231_Gcc/Obj/csMem.o
 .debug_loc     0x0000138c      0x286 All_deRFarm7_At91sam7x512_Rf231_Gcc/Obj/configServer.o

.debug_aranges  0x00000000      0x430
 .debug_aranges
                0x00000000       0x48 All_deRFarm7_At91sam7x512_Rf231_Gcc/Obj/WSNSensorManager.o
 .debug_aranges
                0x00000048       0x78 All_deRFarm7_At91sam7x512_Rf231_Gcc/Obj/WSNVisualizer.o
 .debug_aranges
                0x000000c0       0x78 All_deRFarm7_At91sam7x512_Rf231_Gcc/Obj/WSNEndDevice.o
 .debug_aranges
                0x00000138       0x40 All_deRFarm7_At91sam7x512_Rf231_Gcc/Obj/WSNMessageSender.o
 .debug_aranges
                0x00000178       0x38 All_deRFarm7_At91sam7x512_Rf231_Gcc/Obj/WSNCommandHandler.o
 .debug_aranges
                0x000001b0       0xc8 All_deRFarm7_At91sam7x512_Rf231_Gcc/Obj/WSNDemoApp.o
 .debug_aranges
                0x00000278       0x98 All_deRFarm7_At91sam7x512_Rf231_Gcc/Obj/fakeBSP.o
 .debug_aranges
                0x00000310       0x40 All_deRFarm7_At91sam7x512_Rf231_Gcc/Obj/leds.o
 .debug_aranges
                0x00000350       0x20 All_deRFarm7_At91sam7x512_Rf231_Gcc/Obj/bspTaskManager.o
 .debug_aranges
                0x00000370       0x58 All_deRFarm7_At91sam7x512_Rf231_Gcc/Obj/joystick.o
 .debug_aranges
                0x000003c8       0x20 All_deRFarm7_At91sam7x512_Rf231_Gcc/Obj/csMem.o
 .debug_aranges
                0x000003e8       0x48 All_deRFarm7_At91sam7x512_Rf231_Gcc/Obj/configServer.o

.debug_ranges   0x00000000      0x778
 .debug_ranges  0x00000000       0x38 All_deRFarm7_At91sam7x512_Rf231_Gcc/Obj/WSNSensorManager.o
 .debug_ranges  0x00000038       0x68 All_deRFarm7_At91sam7x512_Rf231_Gcc/Obj/WSNVisualizer.o
 .debug_ranges  0x000000a0       0x68 All_deRFarm7_At91sam7x512_Rf231_Gcc/Obj/WSNEndDevice.o
 .debug_ranges  0x00000108       0x90 All_deRFarm7_At91sam7x512_Rf231_Gcc/Obj/WSNMessageSender.o
 .debug_ranges  0x00000198       0xb8 All_deRFarm7_At91sam7x512_Rf231_Gcc/Obj/WSNCommandHandler.o
 .debug_ranges  0x00000250      0x1b8 All_deRFarm7_At91sam7x512_Rf231_Gcc/Obj/WSNDemoApp.o
 .debug_ranges  0x00000408      0x118 All_deRFarm7_At91sam7x512_Rf231_Gcc/Obj/fakeBSP.o
 .debug_ranges  0x00000520      0x170 All_deRFarm7_At91sam7x512_Rf231_Gcc/Obj/leds.o
 .debug_ranges  0x00000690       0x10 All_deRFarm7_At91sam7x512_Rf231_Gcc/Obj/bspTaskManager.o
 .debug_ranges  0x000006a0       0x90 All_deRFarm7_At91sam7x512_Rf231_Gcc/Obj/joystick.o
 .debug_ranges  0x00000730       0x10 All_deRFarm7_At91sam7x512_Rf231_Gcc/Obj/csMem.o
 .debug_ranges  0x00000740       0x38 All_deRFarm7_At91sam7x512_Rf231_Gcc/Obj/configServer.o

.debug_line     0x00000000     0x32e3
 .debug_line    0x00000000      0x307 All_deRFarm7_At91sam7x512_Rf231_Gcc/Obj/WSNSensorManager.o
 .debug_line    0x00000307      0x2f6 All_deRFarm7_At91sam7x512_Rf231_Gcc/Obj/WSNVisualizer.o
 .debug_line    0x000005fd      0x544 All_deRFarm7_At91sam7x512_Rf231_Gcc/Obj/WSNEndDevice.o
 .debug_line    0x00000b41      0x49a All_deRFarm7_At91sam7x512_Rf231_Gcc/Obj/WSNMessageSender.o
 .debug_line    0x00000fdb      0x36f All_deRFarm7_At91sam7x512_Rf231_Gcc/Obj/WSNCommandHandler.o
 .debug_line    0x0000134a      0x72e All_deRFarm7_At91sam7x512_Rf231_Gcc/Obj/WSNDemoApp.o
 .debug_line    0x00001a78      0x325 All_deRFarm7_At91sam7x512_Rf231_Gcc/Obj/fakeBSP.o
 .debug_line    0x00001d9d      0x278 All_deRFarm7_At91sam7x512_Rf231_Gcc/Obj/leds.o
 .debug_line    0x00002015      0x1d9 All_deRFarm7_At91sam7x512_Rf231_Gcc/Obj/bspTaskManager.o
 .debug_line    0x000021ee      0x37b All_deRFarm7_At91sam7x512_Rf231_Gcc/Obj/joystick.o
 .debug_line    0x00002569      0x656 All_deRFarm7_At91sam7x512_Rf231_Gcc/Obj/csMem.o
 .debug_line    0x00002bbf      0x724 All_deRFarm7_At91sam7x512_Rf231_Gcc/Obj/configServer.o

.debug_str      0x00000000     0x6dde
 .debug_str     0x00000000      0x5c2 All_deRFarm7_At91sam7x512_Rf231_Gcc/Obj/WSNSensorManager.o
                                0x65d (size before relaxing)
 .debug_str     0x000005c2      0x136 All_deRFarm7_At91sam7x512_Rf231_Gcc/Obj/WSNVisualizer.o
                                0x4b0 (size before relaxing)
 .debug_str     0x000006f8     0x1d2f All_deRFarm7_At91sam7x512_Rf231_Gcc/Obj/WSNEndDevice.o
                               0x232d (size before relaxing)
 .debug_str     0x00002427      0x2b2 All_deRFarm7_At91sam7x512_Rf231_Gcc/Obj/WSNMessageSender.o
                               0x141b (size before relaxing)
 .debug_str     0x000026d9      0x10b All_deRFarm7_At91sam7x512_Rf231_Gcc/Obj/WSNCommandHandler.o
                                0x81d (size before relaxing)
 .debug_str     0x000027e4     0x1487 All_deRFarm7_At91sam7x512_Rf231_Gcc/Obj/WSNDemoApp.o
                               0x353d (size before relaxing)
 .debug_str     0x00003c6b      0x178 All_deRFarm7_At91sam7x512_Rf231_Gcc/Obj/fakeBSP.o
                                0x455 (size before relaxing)
 .debug_str     0x00003de3      0x460 All_deRFarm7_At91sam7x512_Rf231_Gcc/Obj/leds.o
                                0x59f (size before relaxing)
 .debug_str     0x00004243       0x67 All_deRFarm7_At91sam7x512_Rf231_Gcc/Obj/bspTaskManager.o
                                0x2f3 (size before relaxing)
 .debug_str     0x000042aa      0x321 All_deRFarm7_At91sam7x512_Rf231_Gcc/Obj/joystick.o
                                0x790 (size before relaxing)
 .debug_str     0x000045cb     0x270e All_deRFarm7_At91sam7x512_Rf231_Gcc/Obj/csMem.o
                               0x4103 (size before relaxing)
 .debug_str     0x00006cd9      0x105 All_deRFarm7_At91sam7x512_Rf231_Gcc/Obj/configServer.o
                               0x477e (size before relaxing)

.comment        0x00000000       0x41
 .comment       0x00000000       0x30 All_deRFarm7_At91sam7x512_Rf231_Gcc/Obj/WSNSensorManager.o
                                 0x31 (size before relaxing)
 .comment       0x00000000       0x31 All_deRFarm7_At91sam7x512_Rf231_Gcc/Obj/WSNVisualizer.o
 .comment       0x00000000       0x31 All_deRFarm7_At91sam7x512_Rf231_Gcc/Obj/WSNEndDevice.o
 .comment       0x00000000       0x31 All_deRFarm7_At91sam7x512_Rf231_Gcc/Obj/WSNMessageSender.o
 .comment       0x00000000       0x31 All_deRFarm7_At91sam7x512_Rf231_Gcc/Obj/WSNCommandHandler.o
 .comment       0x00000000       0x31 All_deRFarm7_At91sam7x512_Rf231_Gcc/Obj/WSNDemoApp.o
 .comment       0x00000000       0x31 All_deRFarm7_At91sam7x512_Rf231_Gcc/Obj/fakeBSP.o
 .comment       0x00000000       0x31 All_deRFarm7_At91sam7x512_Rf231_Gcc/Obj/leds.o
 .comment       0x00000000       0x31 All_deRFarm7_At91sam7x512_Rf231_Gcc/Obj/bspTaskManager.o
 .comment       0x00000000       0x31 All_deRFarm7_At91sam7x512_Rf231_Gcc/Obj/joystick.o
 .comment       0x00000000       0x31 All_deRFarm7_At91sam7x512_Rf231_Gcc/Obj/csMem.o
 .comment       0x00000000       0x31 All_deRFarm7_At91sam7x512_Rf231_Gcc/Obj/configServer.o
 .comment       0x00000000       0x31 ./../../../../BitCloud/lib/libHAL_deRFarm7_At91sam7x512_48Mhz_Gcc.a(atomic.o)
 .comment       0x00000000       0x31 ./../../../../BitCloud/lib/libHAL_deRFarm7_At91sam7x512_48Mhz_Gcc.a(appTimer.o)
 .comment       0x00000000       0x31 ./../../../../BitCloud/lib/libHAL_deRFarm7_At91sam7x512_48Mhz_Gcc.a(usart.o)
 .comment       0x00000000       0x31 ./../../../../BitCloud/lib/libHAL_deRFarm7_At91sam7x512_48Mhz_Gcc.a(i2cPacket.o)
 .comment       0x00000000       0x31 ./../../../../BitCloud/lib/libHAL_deRFarm7_At91sam7x512_48Mhz_Gcc.a(timer.o)
 .comment       0x00000000       0x31 ./../../../../BitCloud/lib/libHAL_deRFarm7_At91sam7x512_48Mhz_Gcc.a(halAppClock.o)
 .comment       0x00000000       0x31 ./../../../../BitCloud/lib/libHAL_deRFarm7_At91sam7x512_48Mhz_Gcc.a(halMacIsr.o)
 .comment       0x00000000       0x31 ./../../../../BitCloud/lib/libHAL_deRFarm7_At91sam7x512_48Mhz_Gcc.a(halTaskManager.o)
 .comment       0x00000000       0x31 ./../../../../BitCloud/lib/libHAL_deRFarm7_At91sam7x512_48Mhz_Gcc.a(adc.o)
 .comment       0x00000000       0x31 ./../../../../BitCloud/lib/libHAL_deRFarm7_At91sam7x512_48Mhz_Gcc.a(halSpi.o)
 .comment       0x00000000       0x31 ./../../../../BitCloud/lib/libHAL_deRFarm7_At91sam7x512_48Mhz_Gcc.a(dbgPort.o)
 .comment       0x00000000       0x31 ./../../../../BitCloud/lib/libHAL_deRFarm7_At91sam7x512_48Mhz_Gcc.a(halRfCtrl.o)
 .comment       0x00000030       0x11 ./../../../../BitCloud/lib/libBc_All_At91sam7x512_Rf231_Gcc.a(aps.o)
                                 0x12 (size before relaxing)
 .comment       0x00000000       0x12 ./../../../../BitCloud/lib/libBc_All_At91sam7x512_Rf231_Gcc.a(macenvPib.o)
 .comment       0x00000000       0x12 ./../../../../BitCloud/lib/libBc_All_At91sam7x512_Rf231_Gcc.a(nwk.o)
 .comment       0x00000000       0x12 ./../../../../BitCloud/lib/libBc_All_At91sam7x512_Rf231_Gcc.a(phyRfIrqDispatcher.o)
 .comment       0x00000000       0x12 ./../../../../BitCloud/lib/libBc_All_At91sam7x512_Rf231_Gcc.a(phyRtimerIrqDispatcher.o)
 .comment       0x00000000       0x12 ./../../../../BitCloud/lib/libBc_All_At91sam7x512_Rf231_Gcc.a(queue.o)
 .comment       0x00000000       0x12 ./../../../../BitCloud/lib/libBc_All_At91sam7x512_Rf231_Gcc.a(sysDuplicateTable.o)
 .comment       0x00000000       0x12 ./../../../../BitCloud/lib/libBc_All_At91sam7x512_Rf231_Gcc.a(sysEvents.o)
 .comment       0x00000000       0x12 ./../../../../BitCloud/lib/libBc_All_At91sam7x512_Rf231_Gcc.a(sysTimer.o)
 .comment       0x00000000       0x12 ./../../../../BitCloud/lib/libBc_All_At91sam7x512_Rf231_Gcc.a(taskManager.o)
 .comment       0x00000000       0x12 ./../../../../BitCloud/lib/libBc_All_At91sam7x512_Rf231_Gcc.a(zdo.o)
 .comment       0x00000000       0x12 ./../../../../BitCloud/lib/libBc_All_At91sam7x512_Rf231_Gcc.a(bcSysSleep.o)
 .comment       0x00000000       0x12 ./../../../../BitCloud/lib/libBc_All_At91sam7x512_Rf231_Gcc.a(macMem.o)
 .comment       0x00000000       0x12 ./../../../../BitCloud/lib/libBc_All_At91sam7x512_Rf231_Gcc.a(machwdManager.o)
 .comment       0x00000000       0x12 ./../../../../BitCloud/lib/libBc_All_At91sam7x512_Rf231_Gcc.a(machwdRegAccessHandler.o)
 .comment       0x00000000       0x12 ./../../../../BitCloud/lib/libBc_All_At91sam7x512_Rf231_Gcc.a(machwdResetHandler.o)
 .comment       0x00000000       0x12 ./../../../../BitCloud/lib/libBc_All_At91sam7x512_Rf231_Gcc.a(machwdRndHandler.o)
 .comment       0x00000000       0x12 ./../../../../BitCloud/lib/libBc_All_At91sam7x512_Rf231_Gcc.a(machwdRxBuffer.o)
 .comment       0x00000000       0x12 ./../../../../BitCloud/lib/libBc_All_At91sam7x512_Rf231_Gcc.a(machwdRxFrameHandler.o)
 .comment       0x00000000       0x12 ./../../../../BitCloud/lib/libBc_All_At91sam7x512_Rf231_Gcc.a(machwdSetHandler.o)
 .comment       0x00000000       0x12 ./../../../../BitCloud/lib/libBc_All_At91sam7x512_Rf231_Gcc.a(machwdTrxCtrl.o)
 .comment       0x00000000       0x12 ./../../../../BitCloud/lib/libBc_All_At91sam7x512_Rf231_Gcc.a(machwdTrxHandler.o)
 .comment       0x00000000       0x12 ./../../../../BitCloud/lib/libBc_All_At91sam7x512_Rf231_Gcc.a(machwdTxFrameHandler.o)
 .comment       0x00000000       0x12 ./../../../../BitCloud/lib/libBc_All_At91sam7x512_Rf231_Gcc.a(machwiManager.o)
 .comment       0x00000000       0x12 ./../../../../BitCloud/lib/libBc_All_At91sam7x512_Rf231_Gcc.a(machwiOrphanHandler.o)
 .comment       0x00000000       0x12 ./../../../../BitCloud/lib/libBc_All_At91sam7x512_Rf231_Gcc.a(machwiPanServer.o)
 .comment       0x00000000       0x12 ./../../../../BitCloud/lib/libBc_All_At91sam7x512_Rf231_Gcc.a(machwiPollHandler.o)
 .comment       0x00000000       0x12 ./../../../../BitCloud/lib/libBc_All_At91sam7x512_Rf231_Gcc.a(machwiPurgeHandler.o)
 .comment       0x00000000       0x12 ./../../../../BitCloud/lib/libBc_All_At91sam7x512_Rf231_Gcc.a(machwiResetHandler.o)
 .comment       0x00000000       0x12 ./../../../../BitCloud/lib/libBc_All_At91sam7x512_Rf231_Gcc.a(machwiRxEnableHandler.o)
 .comment       0x00000000       0x12 ./../../../../BitCloud/lib/libBc_All_At91sam7x512_Rf231_Gcc.a(machwiScanHandler.o)
 .comment       0x00000000       0x12 ./../../../../BitCloud/lib/libBc_All_At91sam7x512_Rf231_Gcc.a(machwiSetGetHandler.o)
 .comment       0x00000000       0x12 ./../../../../BitCloud/lib/libBc_All_At91sam7x512_Rf231_Gcc.a(machwiStartHandler.o)
 .comment       0x00000000       0x12 ./../../../../BitCloud/lib/libBc_All_At91sam7x512_Rf231_Gcc.a(machwiSwitchRxCtrl.o)
 .comment       0x00000000       0x12 ./../../../../BitCloud/lib/libBc_All_At91sam7x512_Rf231_Gcc.a(machwiTransactionHandler.o)
 .comment       0x00000000       0x12 ./../../../../BitCloud/lib/libBc_All_At91sam7x512_Rf231_Gcc.a(machwiTransactionQueue.o)
 .comment       0x00000000       0x12 ./../../../../BitCloud/lib/libBc_All_At91sam7x512_Rf231_Gcc.a(phyInit.o)
 .comment       0x00000000       0x12 ./../../../../BitCloud/lib/libBc_All_At91sam7x512_Rf231_Gcc.a(phyRegAccess.o)
 .comment       0x00000000       0x12 ./../../../../BitCloud/lib/libBc_All_At91sam7x512_Rf231_Gcc.a(phyReset.o)
 .comment       0x00000000       0x12 ./../../../../BitCloud/lib/libBc_All_At91sam7x512_Rf231_Gcc.a(phyRfSpiProto.o)
 .comment       0x00000000       0x12 ./../../../../BitCloud/lib/libBc_All_At91sam7x512_Rf231_Gcc.a(phyRnd.o)
 .comment       0x00000000       0x12 ./../../../../BitCloud/lib/libBc_All_At91sam7x512_Rf231_Gcc.a(phyRxFrame.o)
 .comment       0x00000000       0x12 ./../../../../BitCloud/lib/libBc_All_At91sam7x512_Rf231_Gcc.a(phySet.o)
 .comment       0x00000000       0x12 ./../../../../BitCloud/lib/libBc_All_At91sam7x512_Rf231_Gcc.a(phySetTrxState.o)
 .comment       0x00000000       0x12 ./../../../../BitCloud/lib/libBc_All_At91sam7x512_Rf231_Gcc.a(phyStateMachine.o)
 .comment       0x00000000       0x12 ./../../../../BitCloud/lib/libBc_All_At91sam7x512_Rf231_Gcc.a(phyTxFrame.o)
 .comment       0x00000000       0x12 ./../../../../BitCloud/lib/libBc_All_At91sam7x512_Rf231_Gcc.a(machwdCalibHandler.o)
 .comment       0x00000000       0x12 ./../../../../BitCloud/lib/libBc_All_At91sam7x512_Rf231_Gcc.a(machwdEdHandler.o)
 .comment       0x00000000       0x12 ./../../../../BitCloud/lib/libBc_All_At91sam7x512_Rf231_Gcc.a(machwdFrameRoutine.o)
 .comment       0x00000000       0x12 ./../../../../BitCloud/lib/libBc_All_At91sam7x512_Rf231_Gcc.a(machwdHandlerCtrl.o)
 .comment       0x00000000       0x12 ./../../../../BitCloud/lib/libBc_All_At91sam7x512_Rf231_Gcc.a(machwiAssociateHandler.o)
 .comment       0x00000000       0x12 ./../../../../BitCloud/lib/libBc_All_At91sam7x512_Rf231_Gcc.a(machwiBeaconHandler.o)
 .comment       0x00000000       0x12 ./../../../../BitCloud/lib/libBc_All_At91sam7x512_Rf231_Gcc.a(machwiDataHandler.o)
 .comment       0x00000000       0x12 ./../../../../BitCloud/lib/libBc_All_At91sam7x512_Rf231_Gcc.a(phyCalib.o)
 .comment       0x00000000       0x12 ./../../../../BitCloud/lib/libBc_All_At91sam7x512_Rf231_Gcc.a(phyEd.o)
 .comment       0x00000000       0x31 ./../../../../BitCloud/lib/libHAL_deRFarm7_At91sam7x512_48Mhz_Gcc.a(halInit.o)
 .comment       0x00000000       0x31 ./../../../../BitCloud/lib/libHAL_deRFarm7_At91sam7x512_48Mhz_Gcc.a(halLowLevelInit.o)
 .comment       0x00000000       0x31 ./../../../../BitCloud/lib/libHAL_deRFarm7_At91sam7x512_48Mhz_Gcc.a(halUid.o)
 .comment       0x00000000       0x31 ./../../../../BitCloud/lib/libHAL_deRFarm7_At91sam7x512_48Mhz_Gcc.a(sleep.o)

.ARM.attributes
                0x00000000       0x30
 .ARM.attributes
                0x00000000       0x30 All_deRFarm7_At91sam7x512_Rf231_Gcc/Obj/WSNSensorManager.o
 .ARM.attributes
                0x00000030       0x30 All_deRFarm7_At91sam7x512_Rf231_Gcc/Obj/WSNVisualizer.o
 .ARM.attributes
                0x00000060       0x30 All_deRFarm7_At91sam7x512_Rf231_Gcc/Obj/WSNEndDevice.o
 .ARM.attributes
                0x00000090       0x30 All_deRFarm7_At91sam7x512_Rf231_Gcc/Obj/WSNMessageSender.o
 .ARM.attributes
                0x000000c0       0x30 All_deRFarm7_At91sam7x512_Rf231_Gcc/Obj/WSNCommandHandler.o
 .ARM.attributes
                0x000000f0       0x30 All_deRFarm7_At91sam7x512_Rf231_Gcc/Obj/WSNDemoApp.o
 .ARM.attributes
                0x00000120       0x30 All_deRFarm7_At91sam7x512_Rf231_Gcc/Obj/fakeBSP.o
 .ARM.attributes
                0x00000150       0x30 All_deRFarm7_At91sam7x512_Rf231_Gcc/Obj/leds.o
 .ARM.attributes
                0x00000180       0x30 All_deRFarm7_At91sam7x512_Rf231_Gcc/Obj/bspTaskManager.o
 .ARM.attributes
                0x000001b0       0x30 All_deRFarm7_At91sam7x512_Rf231_Gcc/Obj/joystick.o
 .ARM.attributes
                0x000001e0       0x30 All_deRFarm7_At91sam7x512_Rf231_Gcc/Obj/csMem.o
 .ARM.attributes
                0x00000210       0x30 All_deRFarm7_At91sam7x512_Rf231_Gcc/Obj/configServer.o
 .ARM.attributes
                0x00000240       0x30 ./../../../../BitCloud/lib/libHAL_deRFarm7_At91sam7x512_48Mhz_Gcc.a(atomic.o)
 .ARM.attributes
                0x00000270       0x30 ./../../../../BitCloud/lib/libHAL_deRFarm7_At91sam7x512_48Mhz_Gcc.a(appTimer.o)
 .ARM.attributes
                0x000002a0       0x30 ./../../../../BitCloud/lib/libHAL_deRFarm7_At91sam7x512_48Mhz_Gcc.a(usart.o)
 .ARM.attributes
                0x000002d0       0x30 ./../../../../BitCloud/lib/libHAL_deRFarm7_At91sam7x512_48Mhz_Gcc.a(i2cPacket.o)
 .ARM.attributes
                0x00000300       0x30 ./../../../../BitCloud/lib/libHAL_deRFarm7_At91sam7x512_48Mhz_Gcc.a(timer.o)
 .ARM.attributes
                0x00000330       0x30 ./../../../../BitCloud/lib/libHAL_deRFarm7_At91sam7x512_48Mhz_Gcc.a(halAppClock.o)
 .ARM.attributes
                0x00000360       0x30 ./../../../../BitCloud/lib/libHAL_deRFarm7_At91sam7x512_48Mhz_Gcc.a(halMacIsr.o)
 .ARM.attributes
                0x00000390       0x30 ./../../../../BitCloud/lib/libHAL_deRFarm7_At91sam7x512_48Mhz_Gcc.a(halTaskManager.o)
 .ARM.attributes
                0x000003c0       0x30 ./../../../../BitCloud/lib/libHAL_deRFarm7_At91sam7x512_48Mhz_Gcc.a(adc.o)
 .ARM.attributes
                0x000003f0       0x30 ./../../../../BitCloud/lib/libHAL_deRFarm7_At91sam7x512_48Mhz_Gcc.a(halSpi.o)
 .ARM.attributes
                0x00000420       0x30 ./../../../../BitCloud/lib/libHAL_deRFarm7_At91sam7x512_48Mhz_Gcc.a(dbgPort.o)
 .ARM.attributes
                0x00000450       0x30 ./../../../../BitCloud/lib/libHAL_deRFarm7_At91sam7x512_48Mhz_Gcc.a(halRfCtrl.o)
 .ARM.attributes
                0x00000480       0x32 ./../../../../BitCloud/lib/libBc_All_At91sam7x512_Rf231_Gcc.a(aps.o)
 .ARM.attributes
                0x000004b2       0x32 ./../../../../BitCloud/lib/libBc_All_At91sam7x512_Rf231_Gcc.a(macenvPib.o)
 .ARM.attributes
                0x000004e4       0x32 ./../../../../BitCloud/lib/libBc_All_At91sam7x512_Rf231_Gcc.a(nwk.o)
 .ARM.attributes
                0x00000516       0x32 ./../../../../BitCloud/lib/libBc_All_At91sam7x512_Rf231_Gcc.a(phyRfIrqDispatcher.o)
 .ARM.attributes
                0x00000548       0x32 ./../../../../BitCloud/lib/libBc_All_At91sam7x512_Rf231_Gcc.a(phyRtimerIrqDispatcher.o)
 .ARM.attributes
                0x0000057a       0x32 ./../../../../BitCloud/lib/libBc_All_At91sam7x512_Rf231_Gcc.a(queue.o)
 .ARM.attributes
                0x000005ac       0x32 ./../../../../BitCloud/lib/libBc_All_At91sam7x512_Rf231_Gcc.a(sysDuplicateTable.o)
 .ARM.attributes
                0x000005de       0x32 ./../../../../BitCloud/lib/libBc_All_At91sam7x512_Rf231_Gcc.a(sysEvents.o)
 .ARM.attributes
                0x00000610       0x32 ./../../../../BitCloud/lib/libBc_All_At91sam7x512_Rf231_Gcc.a(sysTimer.o)
 .ARM.attributes
                0x00000642       0x32 ./../../../../BitCloud/lib/libBc_All_At91sam7x512_Rf231_Gcc.a(taskManager.o)
 .ARM.attributes
                0x00000674       0x32 ./../../../../BitCloud/lib/libBc_All_At91sam7x512_Rf231_Gcc.a(zdo.o)
 .ARM.attributes
                0x000006a6       0x32 ./../../../../BitCloud/lib/libBc_All_At91sam7x512_Rf231_Gcc.a(bcSysSleep.o)
 .ARM.attributes
                0x000006d8       0x32 ./../../../../BitCloud/lib/libBc_All_At91sam7x512_Rf231_Gcc.a(macMem.o)
 .ARM.attributes
                0x0000070a       0x32 ./../../../../BitCloud/lib/libBc_All_At91sam7x512_Rf231_Gcc.a(machwdManager.o)
 .ARM.attributes
                0x0000073c       0x32 ./../../../../BitCloud/lib/libBc_All_At91sam7x512_Rf231_Gcc.a(machwdRegAccessHandler.o)
 .ARM.attributes
                0x0000076e       0x32 ./../../../../BitCloud/lib/libBc_All_At91sam7x512_Rf231_Gcc.a(machwdResetHandler.o)
 .ARM.attributes
                0x000007a0       0x32 ./../../../../BitCloud/lib/libBc_All_At91sam7x512_Rf231_Gcc.a(machwdRndHandler.o)
 .ARM.attributes
                0x000007d2       0x32 ./../../../../BitCloud/lib/libBc_All_At91sam7x512_Rf231_Gcc.a(machwdRxBuffer.o)
 .ARM.attributes
                0x00000804       0x32 ./../../../../BitCloud/lib/libBc_All_At91sam7x512_Rf231_Gcc.a(machwdRxFrameHandler.o)
 .ARM.attributes
                0x00000836       0x32 ./../../../../BitCloud/lib/libBc_All_At91sam7x512_Rf231_Gcc.a(machwdSetHandler.o)
 .ARM.attributes
                0x00000868       0x32 ./../../../../BitCloud/lib/libBc_All_At91sam7x512_Rf231_Gcc.a(machwdTrxCtrl.o)
 .ARM.attributes
                0x0000089a       0x32 ./../../../../BitCloud/lib/libBc_All_At91sam7x512_Rf231_Gcc.a(machwdTrxHandler.o)
 .ARM.attributes
                0x000008cc       0x32 ./../../../../BitCloud/lib/libBc_All_At91sam7x512_Rf231_Gcc.a(machwdTxFrameHandler.o)
 .ARM.attributes
                0x000008fe       0x32 ./../../../../BitCloud/lib/libBc_All_At91sam7x512_Rf231_Gcc.a(machwiManager.o)
 .ARM.attributes
                0x00000930       0x32 ./../../../../BitCloud/lib/libBc_All_At91sam7x512_Rf231_Gcc.a(machwiOrphanHandler.o)
 .ARM.attributes
                0x00000962       0x32 ./../../../../BitCloud/lib/libBc_All_At91sam7x512_Rf231_Gcc.a(machwiPanServer.o)
 .ARM.attributes
                0x00000994       0x32 ./../../../../BitCloud/lib/libBc_All_At91sam7x512_Rf231_Gcc.a(machwiPollHandler.o)
 .ARM.attributes
                0x000009c6       0x32 ./../../../../BitCloud/lib/libBc_All_At91sam7x512_Rf231_Gcc.a(machwiPurgeHandler.o)
 .ARM.attributes
                0x000009f8       0x32 ./../../../../BitCloud/lib/libBc_All_At91sam7x512_Rf231_Gcc.a(machwiResetHandler.o)
 .ARM.attributes
                0x00000a2a       0x32 ./../../../../BitCloud/lib/libBc_All_At91sam7x512_Rf231_Gcc.a(machwiRxEnableHandler.o)
 .ARM.attributes
                0x00000a5c       0x32 ./../../../../BitCloud/lib/libBc_All_At91sam7x512_Rf231_Gcc.a(machwiScanHandler.o)
 .ARM.attributes
                0x00000a8e       0x32 ./../../../../BitCloud/lib/libBc_All_At91sam7x512_Rf231_Gcc.a(machwiSetGetHandler.o)
 .ARM.attributes
                0x00000ac0       0x32 ./../../../../BitCloud/lib/libBc_All_At91sam7x512_Rf231_Gcc.a(machwiStartHandler.o)
 .ARM.attributes
                0x00000af2       0x32 ./../../../../BitCloud/lib/libBc_All_At91sam7x512_Rf231_Gcc.a(machwiSwitchRxCtrl.o)
 .ARM.attributes
                0x00000b24       0x32 ./../../../../BitCloud/lib/libBc_All_At91sam7x512_Rf231_Gcc.a(machwiTransactionHandler.o)
 .ARM.attributes
                0x00000b56       0x32 ./../../../../BitCloud/lib/libBc_All_At91sam7x512_Rf231_Gcc.a(machwiTransactionQueue.o)
 .ARM.attributes
                0x00000b88       0x32 ./../../../../BitCloud/lib/libBc_All_At91sam7x512_Rf231_Gcc.a(phyInit.o)
 .ARM.attributes
                0x00000bba       0x32 ./../../../../BitCloud/lib/libBc_All_At91sam7x512_Rf231_Gcc.a(phyRegAccess.o)
 .ARM.attributes
                0x00000bec       0x32 ./../../../../BitCloud/lib/libBc_All_At91sam7x512_Rf231_Gcc.a(phyReset.o)
 .ARM.attributes
                0x00000c1e       0x32 ./../../../../BitCloud/lib/libBc_All_At91sam7x512_Rf231_Gcc.a(phyRfSpiProto.o)
 .ARM.attributes
                0x00000c50       0x32 ./../../../../BitCloud/lib/libBc_All_At91sam7x512_Rf231_Gcc.a(phyRnd.o)
 .ARM.attributes
                0x00000c82       0x32 ./../../../../BitCloud/lib/libBc_All_At91sam7x512_Rf231_Gcc.a(phyRxFrame.o)
 .ARM.attributes
                0x00000cb4       0x32 ./../../../../BitCloud/lib/libBc_All_At91sam7x512_Rf231_Gcc.a(phySet.o)
 .ARM.attributes
                0x00000ce6       0x32 ./../../../../BitCloud/lib/libBc_All_At91sam7x512_Rf231_Gcc.a(phySetTrxState.o)
 .ARM.attributes
                0x00000d18       0x32 ./../../../../BitCloud/lib/libBc_All_At91sam7x512_Rf231_Gcc.a(phyStateMachine.o)
 .ARM.attributes
                0x00000d4a       0x32 ./../../../../BitCloud/lib/libBc_All_At91sam7x512_Rf231_Gcc.a(phyTxFrame.o)
 .ARM.attributes
                0x00000d7c       0x32 ./../../../../BitCloud/lib/libBc_All_At91sam7x512_Rf231_Gcc.a(machwdCalibHandler.o)
 .ARM.attributes
                0x00000dae       0x32 ./../../../../BitCloud/lib/libBc_All_At91sam7x512_Rf231_Gcc.a(machwdEdHandler.o)
 .ARM.attributes
                0x00000de0       0x32 ./../../../../BitCloud/lib/libBc_All_At91sam7x512_Rf231_Gcc.a(machwdFrameRoutine.o)
 .ARM.attributes
                0x00000e12       0x32 ./../../../../BitCloud/lib/libBc_All_At91sam7x512_Rf231_Gcc.a(machwdHandlerCtrl.o)
 .ARM.attributes
                0x00000e44       0x32 ./../../../../BitCloud/lib/libBc_All_At91sam7x512_Rf231_Gcc.a(machwiAssociateHandler.o)
 .ARM.attributes
                0x00000e76       0x32 ./../../../../BitCloud/lib/libBc_All_At91sam7x512_Rf231_Gcc.a(machwiBeaconHandler.o)
 .ARM.attributes
                0x00000ea8       0x32 ./../../../../BitCloud/lib/libBc_All_At91sam7x512_Rf231_Gcc.a(machwiDataHandler.o)
 .ARM.attributes
                0x00000eda       0x32 ./../../../../BitCloud/lib/libBc_All_At91sam7x512_Rf231_Gcc.a(phyCalib.o)
 .ARM.attributes
                0x00000f0c       0x32 ./../../../../BitCloud/lib/libBc_All_At91sam7x512_Rf231_Gcc.a(phyEd.o)
 .ARM.attributes
                0x00000f3e       0x20 ./../../../../BitCloud/lib/FirmwareBoot_Gcc.o
 .ARM.attributes
                0x00000f5e       0x30 ./../../../../BitCloud/lib/libHAL_deRFarm7_At91sam7x512_48Mhz_Gcc.a(halInit.o)
 .ARM.attributes
                0x00000f8e       0x30 ./../../../../BitCloud/lib/libHAL_deRFarm7_At91sam7x512_48Mhz_Gcc.a(halLowLevelInit.o)
 .ARM.attributes
                0x00000fbe       0x30 ./../../../../BitCloud/lib/libHAL_deRFarm7_At91sam7x512_48Mhz_Gcc.a(halUid.o)
 .ARM.attributes
                0x00000fee       0x30 ./../../../../BitCloud/lib/libHAL_deRFarm7_At91sam7x512_48Mhz_Gcc.a(sleep.o)
 .ARM.attributes
                0x0000101e       0x16 /home/bazi/intelligent-house/CodeSourcery/bin/../lib/gcc/arm-none-eabi/4.7.3/thumb/libgcc.a(_thumb1_case_uqi.o)
 .ARM.attributes
                0x00001034       0x16 /home/bazi/intelligent-house/CodeSourcery/bin/../lib/gcc/arm-none-eabi/4.7.3/thumb/libgcc.a(_thumb1_case_shi.o)
 .ARM.attributes
                0x0000104a       0x16 /home/bazi/intelligent-house/CodeSourcery/bin/../lib/gcc/arm-none-eabi/4.7.3/thumb/libgcc.a(_thumb1_case_uhi.o)
 .ARM.attributes
                0x00001060       0x18 /home/bazi/intelligent-house/CodeSourcery/bin/../lib/gcc/arm-none-eabi/4.7.3/thumb/libgcc.a(_udivsi3.o)
 .ARM.attributes
                0x00001078       0x16 /home/bazi/intelligent-house/CodeSourcery/bin/../lib/gcc/arm-none-eabi/4.7.3/thumb/libgcc.a(_dvmd_tls.o)
 .ARM.attributes
                0x0000108e       0x30 /home/bazi/intelligent-house/CodeSourcery/bin/../lib/gcc/arm-none-eabi/4.7.3/../../../../arm-none-eabi/lib/thumb/libc.a(lib_a-memcmp.o)
 .ARM.attributes
                0x000010be       0x30 /home/bazi/intelligent-house/CodeSourcery/bin/../lib/gcc/arm-none-eabi/4.7.3/../../../../arm-none-eabi/lib/thumb/libc.a(lib_a-memcpy.o)
 .ARM.attributes
                0x000010ee       0x30 /home/bazi/intelligent-house/CodeSourcery/bin/../lib/gcc/arm-none-eabi/4.7.3/../../../../arm-none-eabi/lib/thumb/libc.a(lib_a-memmove.o)
 .ARM.attributes
                0x0000111e       0x30 /home/bazi/intelligent-house/CodeSourcery/bin/../lib/gcc/arm-none-eabi/4.7.3/../../../../arm-none-eabi/lib/thumb/libc.a(lib_a-memset.o)
 .ARM.attributes
                0x0000114e       0x30 /home/bazi/intelligent-house/CodeSourcery/bin/../lib/gcc/arm-none-eabi/4.7.3/../../../../arm-none-eabi/lib/thumb/libc.a(lib_a-rand.o)
 .ARM.attributes
                0x0000117e       0x30 /home/bazi/intelligent-house/CodeSourcery/bin/../lib/gcc/arm-none-eabi/4.7.3/../../../../arm-none-eabi/lib/thumb/libc.a(lib_a-impure.o)
 .ARM.attributes
                0x000011ae       0x30 /home/bazi/intelligent-house/CodeSourcery/bin/../lib/gcc/arm-none-eabi/4.7.3/thumb/libgcc.a(_muldi3.o)

.debug_frame    0x00000000      0xb14
 .debug_frame   0x00000000       0xa0 All_deRFarm7_At91sam7x512_Rf231_Gcc/Obj/WSNSensorManager.o
 .debug_frame   0x000000a0       0xf0 All_deRFarm7_At91sam7x512_Rf231_Gcc/Obj/WSNVisualizer.o
 .debug_frame   0x00000190      0x13c All_deRFarm7_At91sam7x512_Rf231_Gcc/Obj/WSNEndDevice.o
 .debug_frame   0x000002cc       0x9c All_deRFarm7_At91sam7x512_Rf231_Gcc/Obj/WSNMessageSender.o
 .debug_frame   0x00000368       0x7c All_deRFarm7_At91sam7x512_Rf231_Gcc/Obj/WSNCommandHandler.o
 .debug_frame   0x000003e4      0x244 All_deRFarm7_At91sam7x512_Rf231_Gcc/Obj/WSNDemoApp.o
 .debug_frame   0x00000628      0x14c All_deRFarm7_At91sam7x512_Rf231_Gcc/Obj/fakeBSP.o
 .debug_frame   0x00000774       0x88 All_deRFarm7_At91sam7x512_Rf231_Gcc/Obj/leds.o
 .debug_frame   0x000007fc       0x2c All_deRFarm7_At91sam7x512_Rf231_Gcc/Obj/bspTaskManager.o
 .debug_frame   0x00000828       0xc0 All_deRFarm7_At91sam7x512_Rf231_Gcc/Obj/joystick.o
 .debug_frame   0x000008e8       0x28 All_deRFarm7_At91sam7x512_Rf231_Gcc/Obj/csMem.o
 .debug_frame   0x00000910       0xbc All_deRFarm7_At91sam7x512_Rf231_Gcc/Obj/configServer.o
 .debug_frame   0x000009cc       0x20 /home/bazi/intelligent-house/CodeSourcery/bin/../lib/gcc/arm-none-eabi/4.7.3/thumb/libgcc.a(_udivsi3.o)
 .debug_frame   0x000009ec       0x2c /home/bazi/intelligent-house/CodeSourcery/bin/../lib/gcc/arm-none-eabi/4.7.3/../../../../arm-none-eabi/lib/thumb/libc.a(lib_a-memcmp.o)
 .debug_frame   0x00000a18       0x38 /home/bazi/intelligent-house/CodeSourcery/bin/../lib/gcc/arm-none-eabi/4.7.3/../../../../arm-none-eabi/lib/thumb/libc.a(lib_a-memcpy.o)
 .debug_frame   0x00000a50       0x30 /home/bazi/intelligent-house/CodeSourcery/bin/../lib/gcc/arm-none-eabi/4.7.3/../../../../arm-none-eabi/lib/thumb/libc.a(lib_a-memmove.o)
 .debug_frame   0x00000a80       0x2c /home/bazi/intelligent-house/CodeSourcery/bin/../lib/gcc/arm-none-eabi/4.7.3/../../../../arm-none-eabi/lib/thumb/libc.a(lib_a-memset.o)
 .debug_frame   0x00000aac       0x38 /home/bazi/intelligent-house/CodeSourcery/bin/../lib/gcc/arm-none-eabi/4.7.3/../../../../arm-none-eabi/lib/thumb/libc.a(lib_a-rand.o)
 .debug_frame   0x00000ae4       0x30 /home/bazi/intelligent-house/CodeSourcery/bin/../lib/gcc/arm-none-eabi/4.7.3/thumb/libgcc.a(_muldi3.o)
